ARM GAS  /var/folders/tn/k4r6j7b53kv6zg3nk3m4krpm0000gp/T//cce5pTHt.s 			page 1


   1              		.cpu cortex-m7
   2              		.arch armv7e-m
   3              		.fpu fpv5-d16
   4              		.eabi_attribute 28, 1
   5              		.eabi_attribute 20, 1
   6              		.eabi_attribute 21, 1
   7              		.eabi_attribute 23, 3
   8              		.eabi_attribute 24, 1
   9              		.eabi_attribute 25, 1
  10              		.eabi_attribute 26, 1
  11              		.eabi_attribute 30, 2
  12              		.eabi_attribute 34, 1
  13              		.eabi_attribute 18, 4
  14              		.file	"DigitalHeat.cpp"
  15              		.text
  16              	.Ltext0:
  17              		.cfi_sections	.debug_frame
  18              		.section	.text._ZN7daisysp3SvfD2Ev,"axG",%progbits,_ZN7daisysp3SvfD5Ev,comdat
  19              		.align	1
  20              		.p2align 2,,3
  21              		.weak	_ZN7daisysp3SvfD2Ev
  22              		.syntax unified
  23              		.thumb
  24              		.thumb_func
  26              	_ZN7daisysp3SvfD2Ev:
  27              	.LVL0:
  28              	.LFB2843:
  29              		.file 1 "../../DaisySP//Source/Filters/svf.h"
   1:../../DaisySP//Source/Filters/svf.h **** /*
   2:../../DaisySP//Source/Filters/svf.h **** Copyright (c) 2020 Electrosmith, Corp
   3:../../DaisySP//Source/Filters/svf.h **** 
   4:../../DaisySP//Source/Filters/svf.h **** Use of this source code is governed by an MIT-style
   5:../../DaisySP//Source/Filters/svf.h **** license that can be found in the LICENSE file or at
   6:../../DaisySP//Source/Filters/svf.h **** https://opensource.org/licenses/MIT.
   7:../../DaisySP//Source/Filters/svf.h **** */
   8:../../DaisySP//Source/Filters/svf.h **** 
   9:../../DaisySP//Source/Filters/svf.h **** #pragma once
  10:../../DaisySP//Source/Filters/svf.h **** #ifndef DSY_SVF_H
  11:../../DaisySP//Source/Filters/svf.h **** #define DSY_SVF_H
  12:../../DaisySP//Source/Filters/svf.h **** 
  13:../../DaisySP//Source/Filters/svf.h **** namespace daisysp
  14:../../DaisySP//Source/Filters/svf.h **** {
  15:../../DaisySP//Source/Filters/svf.h **** /**      Double Sampled, Stable State Variable Filter
  16:../../DaisySP//Source/Filters/svf.h **** 
  17:../../DaisySP//Source/Filters/svf.h **** Credit to Andrew Simper from musicdsp.org
  18:../../DaisySP//Source/Filters/svf.h **** 
  19:../../DaisySP//Source/Filters/svf.h **** This is his "State Variable Filter (Double Sampled, Stable)"
  20:../../DaisySP//Source/Filters/svf.h **** 
  21:../../DaisySP//Source/Filters/svf.h **** Additional thanks to Laurent de Soras for stability limit, and 
  22:../../DaisySP//Source/Filters/svf.h **** Stefan Diedrichsen for the correct notch output
  23:../../DaisySP//Source/Filters/svf.h **** 
  24:../../DaisySP//Source/Filters/svf.h **** Ported by: Stephen Hensley
  25:../../DaisySP//Source/Filters/svf.h **** */
  26:../../DaisySP//Source/Filters/svf.h **** class Svf
  27:../../DaisySP//Source/Filters/svf.h **** {
  28:../../DaisySP//Source/Filters/svf.h ****   public:
  29:../../DaisySP//Source/Filters/svf.h ****     Svf() {}
ARM GAS  /var/folders/tn/k4r6j7b53kv6zg3nk3m4krpm0000gp/T//cce5pTHt.s 			page 2


  30:../../DaisySP//Source/Filters/svf.h ****     ~Svf() {}
  30              		.loc 1 30 5 view -0
  31              		.cfi_startproc
  32              		@ args = 0, pretend = 0, frame = 0
  33              		@ frame_needed = 0, uses_anonymous_args = 0
  34              		@ link register save eliminated.
  35              		.loc 1 30 13 is_stmt 0 view .LVU1
  36 0000 7047     		bx	lr
  37              		.cfi_endproc
  38              	.LFE2843:
  40              		.weak	_ZN7daisysp3SvfD1Ev
  41              		.thumb_set _ZN7daisysp3SvfD1Ev,_ZN7daisysp3SvfD2Ev
  42 0002 00BF     		.section	.text._ZN5daisy8patch_sm12DaisyPatchSMD2Ev,"axG",%progbits,_ZN5daisy8patch_sm12DaisyPatch
  43              		.align	1
  44              		.p2align 2,,3
  45              		.weak	_ZN5daisy8patch_sm12DaisyPatchSMD2Ev
  46              		.syntax unified
  47              		.thumb
  48              		.thumb_func
  50              	_ZN5daisy8patch_sm12DaisyPatchSMD2Ev:
  51              	.LVL1:
  52              	.LFB4842:
  53              		.file 2 "../../libDaisy//src/daisy_patch_sm.h"
   1:../../libDaisy//src/daisy_patch_sm.h **** #pragma once
   2:../../libDaisy//src/daisy_patch_sm.h **** 
   3:../../libDaisy//src/daisy_patch_sm.h **** #include "daisy.h"
   4:../../libDaisy//src/daisy_patch_sm.h **** 
   5:../../libDaisy//src/daisy_patch_sm.h **** namespace daisy
   6:../../libDaisy//src/daisy_patch_sm.h **** {
   7:../../libDaisy//src/daisy_patch_sm.h **** namespace patch_sm
   8:../../libDaisy//src/daisy_patch_sm.h **** {
   9:../../libDaisy//src/daisy_patch_sm.h ****     /** Accessors for the Analog Controls. 
  10:../../libDaisy//src/daisy_patch_sm.h ****      *  These cover the 8x Bipolar CV inputs
  11:../../libDaisy//src/daisy_patch_sm.h ****      *  as well as the 4x 0-3V3 ADC inputs on
  12:../../libDaisy//src/daisy_patch_sm.h ****      *  the hardware 
  13:../../libDaisy//src/daisy_patch_sm.h ****      * 
  14:../../libDaisy//src/daisy_patch_sm.h ****      *  When reading a value with DaisyPatchSM::GetAdcValue()
  15:../../libDaisy//src/daisy_patch_sm.h ****      * 
  16:../../libDaisy//src/daisy_patch_sm.h ****      *  patch.GetAdcValue(patch_sm::CV_1);
  17:../../libDaisy//src/daisy_patch_sm.h ****      */
  18:../../libDaisy//src/daisy_patch_sm.h ****     enum
  19:../../libDaisy//src/daisy_patch_sm.h ****     {
  20:../../libDaisy//src/daisy_patch_sm.h ****         CV_1 = 0,
  21:../../libDaisy//src/daisy_patch_sm.h ****         CV_2,
  22:../../libDaisy//src/daisy_patch_sm.h ****         CV_3,
  23:../../libDaisy//src/daisy_patch_sm.h ****         CV_4,
  24:../../libDaisy//src/daisy_patch_sm.h ****         CV_5,
  25:../../libDaisy//src/daisy_patch_sm.h ****         CV_6,
  26:../../libDaisy//src/daisy_patch_sm.h ****         CV_7,
  27:../../libDaisy//src/daisy_patch_sm.h ****         CV_8,
  28:../../libDaisy//src/daisy_patch_sm.h ****         ADC_9,
  29:../../libDaisy//src/daisy_patch_sm.h ****         ADC_10,
  30:../../libDaisy//src/daisy_patch_sm.h ****         ADC_11,
  31:../../libDaisy//src/daisy_patch_sm.h ****         ADC_12,
  32:../../libDaisy//src/daisy_patch_sm.h ****         ADC_LAST,
  33:../../libDaisy//src/daisy_patch_sm.h ****     };
  34:../../libDaisy//src/daisy_patch_sm.h **** 
ARM GAS  /var/folders/tn/k4r6j7b53kv6zg3nk3m4krpm0000gp/T//cce5pTHt.s 			page 3


  35:../../libDaisy//src/daisy_patch_sm.h ****     /** Enum for addressing the CV Outputs via the WriteCvOut function. */
  36:../../libDaisy//src/daisy_patch_sm.h ****     enum
  37:../../libDaisy//src/daisy_patch_sm.h ****     {
  38:../../libDaisy//src/daisy_patch_sm.h ****         CV_OUT_BOTH = 0,
  39:../../libDaisy//src/daisy_patch_sm.h ****         CV_OUT_1,
  40:../../libDaisy//src/daisy_patch_sm.h ****         CV_OUT_2,
  41:../../libDaisy//src/daisy_patch_sm.h ****     };
  42:../../libDaisy//src/daisy_patch_sm.h **** 
  43:../../libDaisy//src/daisy_patch_sm.h **** 
  44:../../libDaisy//src/daisy_patch_sm.h ****     /** @brief Board support file for DaisyPatchSM hardware
  45:../../libDaisy//src/daisy_patch_sm.h ****      *  @author shensley
  46:../../libDaisy//src/daisy_patch_sm.h ****      *  @ingroup boards
  47:../../libDaisy//src/daisy_patch_sm.h ****      * 
  48:../../libDaisy//src/daisy_patch_sm.h ****      *  Daisy Patch SM is a complete Eurorack module DSP engine.
  49:../../libDaisy//src/daisy_patch_sm.h ****      *  Based on the Daisy Seed, with circuits added for 
  50:../../libDaisy//src/daisy_patch_sm.h ****      *  interfacing directly with eurorack modular synthesizers.
  51:../../libDaisy//src/daisy_patch_sm.h ****      */
  52:../../libDaisy//src/daisy_patch_sm.h ****     class DaisyPatchSM
  53:../../libDaisy//src/daisy_patch_sm.h ****     {
  54:../../libDaisy//src/daisy_patch_sm.h ****       public:
  55:../../libDaisy//src/daisy_patch_sm.h ****         /** Helper for mapping pins, and accessing them using the `GetPin` function */
  56:../../libDaisy//src/daisy_patch_sm.h ****         enum class PinBank
  57:../../libDaisy//src/daisy_patch_sm.h ****         {
  58:../../libDaisy//src/daisy_patch_sm.h ****             A,
  59:../../libDaisy//src/daisy_patch_sm.h ****             B,
  60:../../libDaisy//src/daisy_patch_sm.h ****             C,
  61:../../libDaisy//src/daisy_patch_sm.h ****             D
  62:../../libDaisy//src/daisy_patch_sm.h ****         };
  63:../../libDaisy//src/daisy_patch_sm.h **** 
  64:../../libDaisy//src/daisy_patch_sm.h ****         DaisyPatchSM() {}
  65:../../libDaisy//src/daisy_patch_sm.h ****         ~DaisyPatchSM() {}
  54              		.loc 2 65 9 is_stmt 1 view -0
  55              		.cfi_startproc
  56              		@ args = 0, pretend = 0, frame = 0
  57              		@ frame_needed = 0, uses_anonymous_args = 0
  58              		@ link register save eliminated.
  59              	.LBB595:
  60              	.LBI595:
  61              		.file 3 "../../libDaisy//src/hid/gatein.h"
   1:../../libDaisy//src/hid/gatein.h **** #pragma once
   2:../../libDaisy//src/hid/gatein.h **** #ifndef DSY_GATEIN_H
   3:../../libDaisy//src/hid/gatein.h **** #define DSY_GATEIN_H
   4:../../libDaisy//src/hid/gatein.h **** #include "per/gpio.h"
   5:../../libDaisy//src/hid/gatein.h **** 
   6:../../libDaisy//src/hid/gatein.h **** namespace daisy
   7:../../libDaisy//src/hid/gatein.h **** {
   8:../../libDaisy//src/hid/gatein.h **** /**
   9:../../libDaisy//src/hid/gatein.h ****    @brief Generic Class for handling gate inputs through GPIO.
  10:../../libDaisy//src/hid/gatein.h ****    @author Stephen Hensley
  11:../../libDaisy//src/hid/gatein.h ****    @date    March 2020
  12:../../libDaisy//src/hid/gatein.h ****    @ingroup controls
  13:../../libDaisy//src/hid/gatein.h **** */
  14:../../libDaisy//src/hid/gatein.h **** class GateIn
  15:../../libDaisy//src/hid/gatein.h **** {
  16:../../libDaisy//src/hid/gatein.h ****   public:
  17:../../libDaisy//src/hid/gatein.h ****     /** GateIn Constructor */
  18:../../libDaisy//src/hid/gatein.h ****     GateIn() {}
ARM GAS  /var/folders/tn/k4r6j7b53kv6zg3nk3m4krpm0000gp/T//cce5pTHt.s 			page 4


  19:../../libDaisy//src/hid/gatein.h **** 
  20:../../libDaisy//src/hid/gatein.h ****     /** GateIn Destructor */
  21:../../libDaisy//src/hid/gatein.h ****     ~GateIn() {}
  62              		.loc 3 21 5 view .LVU3
  63              		.loc 3 21 5 is_stmt 0 view .LVU4
  64              	.LBE595:
  65              	.LBB596:
  66              	.LBI596:
  67              		.loc 3 21 5 is_stmt 1 view .LVU5
  68              		.loc 3 21 5 is_stmt 0 view .LVU6
  69              	.LBE596:
  70              	.LBB597:
  71              	.LBI597:
  72              		.file 4 "../../libDaisy//src/dev/codec_pcm3060.h"
   1:../../libDaisy//src/dev/codec_pcm3060.h **** #pragma once
   2:../../libDaisy//src/dev/codec_pcm3060.h **** #ifndef DSY_CODEC_PCM3060_H
   3:../../libDaisy//src/dev/codec_pcm3060.h **** #define DSY_CODEC_PCM3060_H
   4:../../libDaisy//src/dev/codec_pcm3060.h **** #include "per/i2c.h"
   5:../../libDaisy//src/dev/codec_pcm3060.h **** namespace daisy
   6:../../libDaisy//src/dev/codec_pcm3060.h **** {
   7:../../libDaisy//src/dev/codec_pcm3060.h **** /**
   8:../../libDaisy//src/dev/codec_pcm3060.h ****  * @brief Driver for the TI PCM3060 Audio Codec.
   9:../../libDaisy//src/dev/codec_pcm3060.h ****  * @addtogroup codec
  10:../../libDaisy//src/dev/codec_pcm3060.h ****  * 
  11:../../libDaisy//src/dev/codec_pcm3060.h ****  * For now this is a limited interface that uses I2C to communicate with the PCM3060
  12:../../libDaisy//src/dev/codec_pcm3060.h ****  * The device can also be accessed with SPI, which is not yet supported.
  13:../../libDaisy//src/dev/codec_pcm3060.h ****  * 
  14:../../libDaisy//src/dev/codec_pcm3060.h ****  * For now all registers are set to their defaults, and the Init function will 
  15:../../libDaisy//src/dev/codec_pcm3060.h ****  * perform a MRST and SRST before setting the format to 24bit LJ, and disabling 
  16:../../libDaisy//src/dev/codec_pcm3060.h ****  * power save for both the ADC and DAC.
  17:../../libDaisy//src/dev/codec_pcm3060.h ****  *
  18:../../libDaisy//src/dev/codec_pcm3060.h ****  */
  19:../../libDaisy//src/dev/codec_pcm3060.h **** class Pcm3060
  20:../../libDaisy//src/dev/codec_pcm3060.h **** {
  21:../../libDaisy//src/dev/codec_pcm3060.h ****   public:
  22:../../libDaisy//src/dev/codec_pcm3060.h ****     enum class Result
  23:../../libDaisy//src/dev/codec_pcm3060.h ****     {
  24:../../libDaisy//src/dev/codec_pcm3060.h ****         OK,
  25:../../libDaisy//src/dev/codec_pcm3060.h ****         ERR,
  26:../../libDaisy//src/dev/codec_pcm3060.h ****     };
  27:../../libDaisy//src/dev/codec_pcm3060.h **** 
  28:../../libDaisy//src/dev/codec_pcm3060.h ****     Pcm3060() {}
  29:../../libDaisy//src/dev/codec_pcm3060.h ****     ~Pcm3060() {}
  73              		.loc 4 29 5 is_stmt 1 view .LVU7
  74              		.loc 4 29 5 is_stmt 0 view .LVU8
  75              	.LBE597:
  76              	.LBB598:
  77              	.LBI598:
  78              		.file 5 "../../libDaisy//src/hid/usb.h"
   1:../../libDaisy//src/hid/usb.h **** #pragma once
   2:../../libDaisy//src/hid/usb.h **** #ifndef DSY_HID_USB_H
   3:../../libDaisy//src/hid/usb.h **** #define DSY_HID_USB_H
   4:../../libDaisy//src/hid/usb.h **** #include <stdint.h>
   5:../../libDaisy//src/hid/usb.h **** #include <stdlib.h>
   6:../../libDaisy//src/hid/usb.h **** 
   7:../../libDaisy//src/hid/usb.h **** namespace daisy
   8:../../libDaisy//src/hid/usb.h **** /** @addtogroup human_interface
ARM GAS  /var/folders/tn/k4r6j7b53kv6zg3nk3m4krpm0000gp/T//cce5pTHt.s 			page 5


   9:../../libDaisy//src/hid/usb.h ****     @{
  10:../../libDaisy//src/hid/usb.h **** */
  11:../../libDaisy//src/hid/usb.h **** 
  12:../../libDaisy//src/hid/usb.h **** {
  13:../../libDaisy//src/hid/usb.h **** /** 
  14:../../libDaisy//src/hid/usb.h ****     @brief Interface for initializing and using the USB Peripherals on the daisy
  15:../../libDaisy//src/hid/usb.h ****     @author Stephen Hensley
  16:../../libDaisy//src/hid/usb.h ****     @date December 2019
  17:../../libDaisy//src/hid/usb.h **** */
  18:../../libDaisy//src/hid/usb.h **** class UsbHandle
  19:../../libDaisy//src/hid/usb.h **** {
  20:../../libDaisy//src/hid/usb.h ****   public:
  21:../../libDaisy//src/hid/usb.h ****     /** Return values for USBHandle Functions */
  22:../../libDaisy//src/hid/usb.h ****     enum class Result
  23:../../libDaisy//src/hid/usb.h ****     {
  24:../../libDaisy//src/hid/usb.h ****         OK,
  25:../../libDaisy//src/hid/usb.h ****         ERR,
  26:../../libDaisy//src/hid/usb.h ****     };
  27:../../libDaisy//src/hid/usb.h **** 
  28:../../libDaisy//src/hid/usb.h ****     /** Specified which of the two USB Peripherals to initialize. */
  29:../../libDaisy//src/hid/usb.h ****     enum UsbPeriph
  30:../../libDaisy//src/hid/usb.h ****     {
  31:../../libDaisy//src/hid/usb.h ****         FS_INTERNAL, /**< Internal pin */
  32:../../libDaisy//src/hid/usb.h ****         FS_EXTERNAL, /**< FS External D+ pin is Pin 38 (GPIO32). FS External D- pin is Pin 37 (GPIO
  33:../../libDaisy//src/hid/usb.h ****         FS_BOTH,     /**< Both */
  34:../../libDaisy//src/hid/usb.h ****     };
  35:../../libDaisy//src/hid/usb.h **** 
  36:../../libDaisy//src/hid/usb.h **** 
  37:../../libDaisy//src/hid/usb.h ****     /** Function called upon reception of a buffer */
  38:../../libDaisy//src/hid/usb.h ****     typedef void (*ReceiveCallback)(uint8_t* buff, uint32_t* len);
  39:../../libDaisy//src/hid/usb.h **** 
  40:../../libDaisy//src/hid/usb.h ****     UsbHandle() {}
  41:../../libDaisy//src/hid/usb.h **** 
  42:../../libDaisy//src/hid/usb.h ****     ~UsbHandle() {}
  79              		.loc 5 42 5 is_stmt 1 view .LVU9
  80              		.loc 5 42 5 is_stmt 0 view .LVU10
  81              	.LBE598:
  82              	.LBB599:
  83              	.LBI599:
  84              		.file 6 "../../libDaisy//src/per/adc.h"
   1:../../libDaisy//src/per/adc.h **** #pragma once
   2:../../libDaisy//src/per/adc.h **** #ifndef DSY_ADC_H
   3:../../libDaisy//src/per/adc.h **** #define DSY_ADC_H /**< Macro */
   4:../../libDaisy//src/per/adc.h **** #include <stdint.h>
   5:../../libDaisy//src/per/adc.h **** #include <stdlib.h>
   6:../../libDaisy//src/per/adc.h **** #include "daisy_core.h"
   7:../../libDaisy//src/per/adc.h **** #include "per/gpio.h"
   8:../../libDaisy//src/per/adc.h **** 
   9:../../libDaisy//src/per/adc.h **** #define DSY_ADC_MAX_CHANNELS 16 /**< Maximum number of ADC channels */
  10:../../libDaisy//src/per/adc.h **** 
  11:../../libDaisy//src/per/adc.h **** namespace daisy
  12:../../libDaisy//src/per/adc.h **** {
  13:../../libDaisy//src/per/adc.h **** /** @addtogroup per_analog
  14:../../libDaisy//src/per/adc.h ****     @{
  15:../../libDaisy//src/per/adc.h **** */
  16:../../libDaisy//src/per/adc.h **** 
  17:../../libDaisy//src/per/adc.h **** /* While there may not be many configuration options here,
ARM GAS  /var/folders/tn/k4r6j7b53kv6zg3nk3m4krpm0000gp/T//cce5pTHt.s 			page 6


  18:../../libDaisy//src/per/adc.h **** using a struct like this allows us to add more configuration
  19:../../libDaisy//src/per/adc.h **** later without breaking existing functionality.
  20:../../libDaisy//src/per/adc.h **** */
  21:../../libDaisy//src/per/adc.h **** 
  22:../../libDaisy//src/per/adc.h **** /** @brief   Configuration Structure for an ADC Channel 
  23:../../libDaisy//src/per/adc.h ****  *  @details This can be used to configure a a single input, 
  24:../../libDaisy//src/per/adc.h ****  *           or a multiplexed input, allowing up to 8 inputs on 
  25:../../libDaisy//src/per/adc.h ****  *           one channel.
  26:../../libDaisy//src/per/adc.h ****  *  @note    Sharing data lines to multiple muxes _is_ possible, but
  27:../../libDaisy//src/per/adc.h ****  *           each channel sharing data lines must be set to the maximum
  28:../../libDaisy//src/per/adc.h ****  *           number of channels, even if some multiplexers have fewer
  29:../../libDaisy//src/per/adc.h ****  *           inputs connected.
  30:../../libDaisy//src/per/adc.h **** */
  31:../../libDaisy//src/per/adc.h **** struct AdcChannelConfig
  32:../../libDaisy//src/per/adc.h **** {
  33:../../libDaisy//src/per/adc.h ****     /** Which pin to use for multiplexing */
  34:../../libDaisy//src/per/adc.h ****     enum MuxPin
  35:../../libDaisy//src/per/adc.h ****     {
  36:../../libDaisy//src/per/adc.h ****         MUX_SEL_0,    /**< & */
  37:../../libDaisy//src/per/adc.h ****         MUX_SEL_1,    /**< & */
  38:../../libDaisy//src/per/adc.h ****         MUX_SEL_2,    /**< & */
  39:../../libDaisy//src/per/adc.h ****         MUX_SEL_LAST, /**< & */
  40:../../libDaisy//src/per/adc.h ****     };
  41:../../libDaisy//src/per/adc.h **** 
  42:../../libDaisy//src/per/adc.h ****     /** \brief per channel conversion speed added to fixed time based on bitdepth, etc. */
  43:../../libDaisy//src/per/adc.h ****     enum ConversionSpeed
  44:../../libDaisy//src/per/adc.h ****     {
  45:../../libDaisy//src/per/adc.h ****         SPEED_1CYCLES_5,
  46:../../libDaisy//src/per/adc.h ****         SPEED_2CYCLES_5,
  47:../../libDaisy//src/per/adc.h ****         SPEED_8CYCLES_5,
  48:../../libDaisy//src/per/adc.h ****         SPEED_16CYCLES_5,
  49:../../libDaisy//src/per/adc.h ****         SPEED_32CYCLES_5,
  50:../../libDaisy//src/per/adc.h ****         SPEED_64CYCLES_5,
  51:../../libDaisy//src/per/adc.h ****         SPEED_387CYCLES_5,
  52:../../libDaisy//src/per/adc.h ****         SPEED_810CYCLES_5,
  53:../../libDaisy//src/per/adc.h ****     };
  54:../../libDaisy//src/per/adc.h **** 
  55:../../libDaisy//src/per/adc.h ****     /** Initializes a single ADC pin as an ADC. 
  56:../../libDaisy//src/per/adc.h ****     \param pin Pin to init.
  57:../../libDaisy//src/per/adc.h ****     \param speed conversion speed for this pin defaults to 8.5 cycles
  58:../../libDaisy//src/per/adc.h ****      */
  59:../../libDaisy//src/per/adc.h ****     void InitSingle(dsy_gpio_pin pin, ConversionSpeed speed = SPEED_8CYCLES_5);
  60:../../libDaisy//src/per/adc.h **** 
  61:../../libDaisy//src/per/adc.h ****     /** 
  62:../../libDaisy//src/per/adc.h ****     Initializes a single ADC pin as a Multiplexed ADC.
  63:../../libDaisy//src/per/adc.h ****     Requires a CD405X Multiplexer connected to the pin.
  64:../../libDaisy//src/per/adc.h ****     You only need to supply the mux pins that are required,
  65:../../libDaisy//src/per/adc.h ****     e.g. a 4052 mux would only require mux_0 and mux_1.
  66:../../libDaisy//src/per/adc.h ****     Internal Callbacks handle the pin addressing.
  67:../../libDaisy//src/per/adc.h ****     \param adc_pin &
  68:../../libDaisy//src/per/adc.h ****     \param mux_channels must be 1-8
  69:../../libDaisy//src/per/adc.h ****     \param mux_0 First mux pin
  70:../../libDaisy//src/per/adc.h ****     \param mux_1 Second mux pin
  71:../../libDaisy//src/per/adc.h ****     \param mux_2 Third mux pin
  72:../../libDaisy//src/per/adc.h ****     \param speed conversion speed for this pin defaults to 8.5 cycles
  73:../../libDaisy//src/per/adc.h ****     */
  74:../../libDaisy//src/per/adc.h ****     void InitMux(dsy_gpio_pin    adc_pin,
ARM GAS  /var/folders/tn/k4r6j7b53kv6zg3nk3m4krpm0000gp/T//cce5pTHt.s 			page 7


  75:../../libDaisy//src/per/adc.h ****                  size_t          mux_channels,
  76:../../libDaisy//src/per/adc.h ****                  dsy_gpio_pin    mux_0,
  77:../../libDaisy//src/per/adc.h ****                  dsy_gpio_pin    mux_1 = {DSY_GPIOX, 0},
  78:../../libDaisy//src/per/adc.h ****                  dsy_gpio_pin    mux_2 = {DSY_GPIOX, 0},
  79:../../libDaisy//src/per/adc.h ****                  ConversionSpeed speed = SPEED_8CYCLES_5);
  80:../../libDaisy//src/per/adc.h **** 
  81:../../libDaisy//src/per/adc.h ****     dsy_gpio        pin_;                   /**< & */
  82:../../libDaisy//src/per/adc.h ****     dsy_gpio        mux_pin_[MUX_SEL_LAST]; /**< & */
  83:../../libDaisy//src/per/adc.h ****     uint8_t         mux_channels_;          /**< & */
  84:../../libDaisy//src/per/adc.h ****     ConversionSpeed speed_;
  85:../../libDaisy//src/per/adc.h **** };
  86:../../libDaisy//src/per/adc.h **** 
  87:../../libDaisy//src/per/adc.h **** /**
  88:../../libDaisy//src/per/adc.h ****    @brief Handler for analog to digital conversion
  89:../../libDaisy//src/per/adc.h **** */
  90:../../libDaisy//src/per/adc.h **** class AdcHandle
  91:../../libDaisy//src/per/adc.h **** {
  92:../../libDaisy//src/per/adc.h ****   public:
  93:../../libDaisy//src/per/adc.h ****     /** Supported oversampling amounts */
  94:../../libDaisy//src/per/adc.h ****     enum OverSampling
  95:../../libDaisy//src/per/adc.h ****     {
  96:../../libDaisy//src/per/adc.h ****         OVS_NONE, /**< & */
  97:../../libDaisy//src/per/adc.h ****         OVS_4,    /**< & */
  98:../../libDaisy//src/per/adc.h ****         OVS_8,    /**< & */
  99:../../libDaisy//src/per/adc.h ****         OVS_16,   /**< & */
 100:../../libDaisy//src/per/adc.h ****         OVS_32,   /**< & */
 101:../../libDaisy//src/per/adc.h ****         OVS_64,   /**< & */
 102:../../libDaisy//src/per/adc.h ****         OVS_128,  /**< & */
 103:../../libDaisy//src/per/adc.h ****         OVS_256,  /**< & */
 104:../../libDaisy//src/per/adc.h ****         OVS_512,  /**< & */
 105:../../libDaisy//src/per/adc.h ****         OVS_1024, /**< & */
 106:../../libDaisy//src/per/adc.h ****         OVS_LAST, /**< & */
 107:../../libDaisy//src/per/adc.h ****     };
 108:../../libDaisy//src/per/adc.h **** 
 109:../../libDaisy//src/per/adc.h ****     AdcHandle() {}
 110:../../libDaisy//src/per/adc.h ****     ~AdcHandle() {}
  85              		.loc 6 110 5 is_stmt 1 view .LVU11
  86              		.loc 6 110 5 is_stmt 0 view .LVU12
  87              	.LBE599:
  88              	.LBB600:
  89              	.LBI600:
  90              		.file 7 "../../libDaisy//src/hid/audio.h"
   1:../../libDaisy//src/hid/audio.h **** #ifndef DSY_AUDIO_H
   2:../../libDaisy//src/hid/audio.h **** #define DSY_AUDIO_H /**< & */
   3:../../libDaisy//src/hid/audio.h **** 
   4:../../libDaisy//src/hid/audio.h **** #include "per/sai.h"
   5:../../libDaisy//src/hid/audio.h **** 
   6:../../libDaisy//src/hid/audio.h **** namespace daisy
   7:../../libDaisy//src/hid/audio.h **** {
   8:../../libDaisy//src/hid/audio.h **** /** @brief Audio Engine Handle
   9:../../libDaisy//src/hid/audio.h ****  *  @ingroup audio 
  10:../../libDaisy//src/hid/audio.h ****  *  @details This class allows for higher level access to an audio engine.
  11:../../libDaisy//src/hid/audio.h ****  *           If you're using a SOM like the DaisySeed or DaisyPatchSM (or any 
  12:../../libDaisy//src/hid/audio.h ****  *            board that includes one of those objects) then the intialization
  13:../../libDaisy//src/hid/audio.h ****  *            is already taken  care of.
  14:../../libDaisy//src/hid/audio.h ****  *           If you're setting up your own custom hardware, or need to make changes
  15:../../libDaisy//src/hid/audio.h ****  *           you will have to take the following steps:
ARM GAS  /var/folders/tn/k4r6j7b53kv6zg3nk3m4krpm0000gp/T//cce5pTHt.s 			page 8


  16:../../libDaisy//src/hid/audio.h ****  *             1. Create and Initialize an SaiHandle or two depending on your requirements
  17:../../libDaisy//src/hid/audio.h ****  *             2. Initialize the Audio Handle with the desired settings and the Initialized SaiHand
  18:../../libDaisy//src/hid/audio.h ****  *             3. If the connected codec requires special configuration or initialization, do so
  19:../../libDaisy//src/hid/audio.h ****  *             4. Write a callback method using either the AudioCallback or the InterleavingAudioCa
  20:../../libDaisy//src/hid/audio.h ****  *             5. Start the Audio using one of the StartAudio function
  21:../../libDaisy//src/hid/audio.h ****  */
  22:../../libDaisy//src/hid/audio.h **** class AudioHandle
  23:../../libDaisy//src/hid/audio.h **** {
  24:../../libDaisy//src/hid/audio.h ****   public:
  25:../../libDaisy//src/hid/audio.h ****     /** Manually configurable details about the Audio Engine */
  26:../../libDaisy//src/hid/audio.h ****     /** TODO: Figure out how to get samplerate in here. */
  27:../../libDaisy//src/hid/audio.h ****     struct Config
  28:../../libDaisy//src/hid/audio.h ****     {
  29:../../libDaisy//src/hid/audio.h ****         /** number of samples to process per callback */
  30:../../libDaisy//src/hid/audio.h ****         size_t blocksize;
  31:../../libDaisy//src/hid/audio.h **** 
  32:../../libDaisy//src/hid/audio.h ****         /**< Sample rate of audio */
  33:../../libDaisy//src/hid/audio.h ****         SaiHandle::Config::SampleRate samplerate;
  34:../../libDaisy//src/hid/audio.h **** 
  35:../../libDaisy//src/hid/audio.h ****         /** factor for adjustment before and after callback for hardware that may have extra headro
  36:../../libDaisy//src/hid/audio.h ****         float postgain;
  37:../../libDaisy//src/hid/audio.h **** 
  38:../../libDaisy//src/hid/audio.h ****         /** factor for additional one-sided compensation to audio path for hardware that may
  39:../../libDaisy//src/hid/audio.h ****          *  have unequal input/output ranges
  40:../../libDaisy//src/hid/audio.h ****          */
  41:../../libDaisy//src/hid/audio.h ****         float output_compensation;
  42:../../libDaisy//src/hid/audio.h **** 
  43:../../libDaisy//src/hid/audio.h ****         /** Sets default values for config struct */
  44:../../libDaisy//src/hid/audio.h ****         Config()
  45:../../libDaisy//src/hid/audio.h ****         : blocksize(48),
  46:../../libDaisy//src/hid/audio.h ****           samplerate(SaiHandle::Config::SampleRate::SAI_48KHZ),
  47:../../libDaisy//src/hid/audio.h ****           postgain(1.f),
  48:../../libDaisy//src/hid/audio.h ****           output_compensation(1.f)
  49:../../libDaisy//src/hid/audio.h ****         {
  50:../../libDaisy//src/hid/audio.h ****         }
  51:../../libDaisy//src/hid/audio.h ****     };
  52:../../libDaisy//src/hid/audio.h **** 
  53:../../libDaisy//src/hid/audio.h ****     enum class Result
  54:../../libDaisy//src/hid/audio.h ****     {
  55:../../libDaisy//src/hid/audio.h ****         OK,
  56:../../libDaisy//src/hid/audio.h ****         ERR,
  57:../../libDaisy//src/hid/audio.h ****     };
  58:../../libDaisy//src/hid/audio.h **** 
  59:../../libDaisy//src/hid/audio.h ****     /** Non-Interleaving input buffer
  60:../../libDaisy//src/hid/audio.h ****      * Buffer arranged by float[chn][sample] 
  61:../../libDaisy//src/hid/audio.h ****      * const so that the user can't modify the input
  62:../../libDaisy//src/hid/audio.h ****      */
  63:../../libDaisy//src/hid/audio.h ****     typedef const float* const* InputBuffer;
  64:../../libDaisy//src/hid/audio.h **** 
  65:../../libDaisy//src/hid/audio.h ****     /** Non-Interleaving output buffer
  66:../../libDaisy//src/hid/audio.h ****      * Arranged by float[chn][sample] 
  67:../../libDaisy//src/hid/audio.h ****      */
  68:../../libDaisy//src/hid/audio.h ****     typedef float** OutputBuffer;
  69:../../libDaisy//src/hid/audio.h **** 
  70:../../libDaisy//src/hid/audio.h ****     /** Type for a Non-Interleaving audio callback 
  71:../../libDaisy//src/hid/audio.h ****      * Non-Interleaving audio callbacks in daisy will be of this type
  72:../../libDaisy//src/hid/audio.h ****      */
ARM GAS  /var/folders/tn/k4r6j7b53kv6zg3nk3m4krpm0000gp/T//cce5pTHt.s 			page 9


  73:../../libDaisy//src/hid/audio.h ****     typedef void (*AudioCallback)(InputBuffer  in,
  74:../../libDaisy//src/hid/audio.h ****                                   OutputBuffer out,
  75:../../libDaisy//src/hid/audio.h ****                                   size_t       size);
  76:../../libDaisy//src/hid/audio.h **** 
  77:../../libDaisy//src/hid/audio.h ****     /** Interleaving Input buffer
  78:../../libDaisy//src/hid/audio.h ****      ** audio is prepared as { L0, R0, L1, R1, . . . LN, RN }]
  79:../../libDaisy//src/hid/audio.h ****      ** this is const, as the user shouldn't modify it
  80:../../libDaisy//src/hid/audio.h ****     */
  81:../../libDaisy//src/hid/audio.h ****     typedef const float* InterleavingInputBuffer;
  82:../../libDaisy//src/hid/audio.h **** 
  83:../../libDaisy//src/hid/audio.h ****     /** Interleaving Output buffer 
  84:../../libDaisy//src/hid/audio.h ****      ** audio is prepared as { L0, R0, L1, R1, . . . LN, RN }
  85:../../libDaisy//src/hid/audio.h ****     */
  86:../../libDaisy//src/hid/audio.h ****     typedef float* InterleavingOutputBuffer;
  87:../../libDaisy//src/hid/audio.h **** 
  88:../../libDaisy//src/hid/audio.h ****     /** Interleaving Audio Callback 
  89:../../libDaisy//src/hid/audio.h ****      * Interleaving audio callbacks in daisy must be of this type
  90:../../libDaisy//src/hid/audio.h ****      */
  91:../../libDaisy//src/hid/audio.h ****     typedef void (*InterleavingAudioCallback)(InterleavingInputBuffer  in,
  92:../../libDaisy//src/hid/audio.h ****                                               InterleavingOutputBuffer out,
  93:../../libDaisy//src/hid/audio.h ****                                               size_t                   size);
  94:../../libDaisy//src/hid/audio.h **** 
  95:../../libDaisy//src/hid/audio.h ****     AudioHandle() : pimpl_(nullptr) {}
  96:../../libDaisy//src/hid/audio.h ****     ~AudioHandle() {}
  91              		.loc 7 96 5 is_stmt 1 view .LVU13
  92              		.loc 7 96 5 is_stmt 0 view .LVU14
  93              	.LBE600:
  94              	.LBB601:
  95              	.LBI601:
  96              		.file 8 "../../libDaisy//src/sys/system.h"
   1:../../libDaisy//src/sys/system.h **** #ifndef DSY_SYSTEM_H
   2:../../libDaisy//src/sys/system.h **** #define DSY_SYSTEM_H
   3:../../libDaisy//src/sys/system.h **** 
   4:../../libDaisy//src/sys/system.h **** #ifndef UNIT_TEST // for unit tests, a dummy implementation is provided below
   5:../../libDaisy//src/sys/system.h **** 
   6:../../libDaisy//src/sys/system.h **** #include <cstdint>
   7:../../libDaisy//src/sys/system.h **** #include "per/tim.h"
   8:../../libDaisy//src/sys/system.h **** 
   9:../../libDaisy//src/sys/system.h **** namespace daisy
  10:../../libDaisy//src/sys/system.h **** {
  11:../../libDaisy//src/sys/system.h **** /** A handle for interacting with the Core System.
  12:../../libDaisy//src/sys/system.h ****  ** This includes the Clock tree, MPU, global DMA initialization,
  13:../../libDaisy//src/sys/system.h ****  ** cache handling, and any other necessary global initiailzation
  14:../../libDaisy//src/sys/system.h ****  **
  15:../../libDaisy//src/sys/system.h ****  ** @author shensley
  16:../../libDaisy//src/sys/system.h ****  ** @ingroup system
  17:../../libDaisy//src/sys/system.h ****  */
  18:../../libDaisy//src/sys/system.h **** class System
  19:../../libDaisy//src/sys/system.h **** {
  20:../../libDaisy//src/sys/system.h ****   public:
  21:../../libDaisy//src/sys/system.h ****     /** Contains settings for initializing the System */
  22:../../libDaisy//src/sys/system.h ****     struct Config
  23:../../libDaisy//src/sys/system.h ****     {
  24:../../libDaisy//src/sys/system.h ****         /** Specifies the system clock frequency that feeds APB/AHB clocks, etc. */
  25:../../libDaisy//src/sys/system.h ****         enum class SysClkFreq
  26:../../libDaisy//src/sys/system.h ****         {
  27:../../libDaisy//src/sys/system.h ****             FREQ_400MHZ,
ARM GAS  /var/folders/tn/k4r6j7b53kv6zg3nk3m4krpm0000gp/T//cce5pTHt.s 			page 10


  28:../../libDaisy//src/sys/system.h ****             FREQ_480MHZ,
  29:../../libDaisy//src/sys/system.h ****         };
  30:../../libDaisy//src/sys/system.h **** 
  31:../../libDaisy//src/sys/system.h ****         /** Method to call on the struct to set to defaults
  32:../../libDaisy//src/sys/system.h ****          ** CPU Freq set to 400MHz
  33:../../libDaisy//src/sys/system.h ****          ** Cache Enabled
  34:../../libDaisy//src/sys/system.h ****          ** */
  35:../../libDaisy//src/sys/system.h ****         void Defaults()
  36:../../libDaisy//src/sys/system.h ****         {
  37:../../libDaisy//src/sys/system.h ****             cpu_freq    = SysClkFreq::FREQ_400MHZ;
  38:../../libDaisy//src/sys/system.h ****             use_dcache  = true;
  39:../../libDaisy//src/sys/system.h ****             use_icache  = true;
  40:../../libDaisy//src/sys/system.h ****             skip_clocks = false;
  41:../../libDaisy//src/sys/system.h ****         }
  42:../../libDaisy//src/sys/system.h **** 
  43:../../libDaisy//src/sys/system.h ****         /** Method to call on the struct to set to boost mode:
  44:../../libDaisy//src/sys/system.h ****          ** CPU Freq set to 480MHz
  45:../../libDaisy//src/sys/system.h ****          ** Cache Enabled
  46:../../libDaisy//src/sys/system.h ****          ** */
  47:../../libDaisy//src/sys/system.h ****         void Boost()
  48:../../libDaisy//src/sys/system.h ****         {
  49:../../libDaisy//src/sys/system.h ****             cpu_freq    = SysClkFreq::FREQ_480MHZ;
  50:../../libDaisy//src/sys/system.h ****             use_dcache  = true;
  51:../../libDaisy//src/sys/system.h ****             use_icache  = true;
  52:../../libDaisy//src/sys/system.h ****             skip_clocks = false;
  53:../../libDaisy//src/sys/system.h ****         }
  54:../../libDaisy//src/sys/system.h **** 
  55:../../libDaisy//src/sys/system.h ****         SysClkFreq cpu_freq;
  56:../../libDaisy//src/sys/system.h ****         bool       use_dcache;
  57:../../libDaisy//src/sys/system.h ****         bool       use_icache;
  58:../../libDaisy//src/sys/system.h ****         bool       skip_clocks;
  59:../../libDaisy//src/sys/system.h ****     };
  60:../../libDaisy//src/sys/system.h **** 
  61:../../libDaisy//src/sys/system.h ****     /** Describes the different regions of memory available to the Daisy */
  62:../../libDaisy//src/sys/system.h ****     enum MemoryRegion
  63:../../libDaisy//src/sys/system.h ****     {
  64:../../libDaisy//src/sys/system.h ****         INTERNAL_FLASH = 0,
  65:../../libDaisy//src/sys/system.h ****         ITCMRAM,
  66:../../libDaisy//src/sys/system.h ****         DTCMRAM,
  67:../../libDaisy//src/sys/system.h ****         SRAM_D1,
  68:../../libDaisy//src/sys/system.h ****         SRAM_D2,
  69:../../libDaisy//src/sys/system.h ****         SRAM_D3,
  70:../../libDaisy//src/sys/system.h ****         SDRAM,
  71:../../libDaisy//src/sys/system.h ****         QSPI,
  72:../../libDaisy//src/sys/system.h ****         INVALID_ADDRESS,
  73:../../libDaisy//src/sys/system.h ****     };
  74:../../libDaisy//src/sys/system.h **** 
  75:../../libDaisy//src/sys/system.h ****     /** Bootloader struct for controlling bootloading parameters */
  76:../../libDaisy//src/sys/system.h ****     struct BootInfo
  77:../../libDaisy//src/sys/system.h ****     {
  78:../../libDaisy//src/sys/system.h ****         enum class Type : uint32_t
  79:../../libDaisy//src/sys/system.h ****         {
  80:../../libDaisy//src/sys/system.h ****             INVALID      = 0x00000000,
  81:../../libDaisy//src/sys/system.h ****             JUMP         = 0xDEADBEEF,
  82:../../libDaisy//src/sys/system.h ****             SKIP_TIMEOUT = 0x5AFEB007,
  83:../../libDaisy//src/sys/system.h ****             INF_TIMEOUT  = 0xB0074EFA,
  84:../../libDaisy//src/sys/system.h ****         } status;
ARM GAS  /var/folders/tn/k4r6j7b53kv6zg3nk3m4krpm0000gp/T//cce5pTHt.s 			page 11


  85:../../libDaisy//src/sys/system.h ****         uint32_t data;
  86:../../libDaisy//src/sys/system.h ****         enum class Version : uint32_t
  87:../../libDaisy//src/sys/system.h ****         {
  88:../../libDaisy//src/sys/system.h ****             LT_v6_0 = 0, // Less than v6.0
  89:../../libDaisy//src/sys/system.h ****             NONE,        // No bootloader present
  90:../../libDaisy//src/sys/system.h ****             v6_0,        // v6.0
  91:../../libDaisy//src/sys/system.h ****             v6_1,        // v6.1 or greater
  92:../../libDaisy//src/sys/system.h ****             LAST
  93:../../libDaisy//src/sys/system.h ****         } version;
  94:../../libDaisy//src/sys/system.h ****     };
  95:../../libDaisy//src/sys/system.h **** 
  96:../../libDaisy//src/sys/system.h ****     System() {}
  97:../../libDaisy//src/sys/system.h ****     ~System() {}
  97              		.loc 8 97 5 is_stmt 1 view .LVU15
  98              		.loc 8 97 5 is_stmt 0 view .LVU16
  99              	.LBE601:
 100              		.loc 2 65 26 view .LVU17
 101 0000 7047     		bx	lr
 102              		.cfi_endproc
 103              	.LFE4842:
 105              		.weak	_ZN5daisy8patch_sm12DaisyPatchSMD1Ev
 106              		.thumb_set _ZN5daisy8patch_sm12DaisyPatchSMD1Ev,_ZN5daisy8patch_sm12DaisyPatchSMD2Ev
 107 0002 00BF     		.section	.text._ZN13sudwalfulkaan9UIManagerD2Ev,"axG",%progbits,_ZN13sudwalfulkaan9UIManagerD5Ev,c
 108              		.align	1
 109              		.p2align 2,,3
 110              		.weak	_ZN13sudwalfulkaan9UIManagerD2Ev
 111              		.syntax unified
 112              		.thumb
 113              		.thumb_func
 115              	_ZN13sudwalfulkaan9UIManagerD2Ev:
 116              	.LVL2:
 117              	.LFB5814:
 118              		.file 9 "library/ui/UIManager.h"
   1:library/ui/UIManager.h **** #pragma once
   2:library/ui/UIManager.h **** #include "daisy_patch_sm.h"
   3:library/ui/UIManager.h **** #include "ParamSmoother.h"
   4:library/ui/UIManager.h **** #include <math.h>
   5:library/ui/UIManager.h **** #include <functional>
   6:library/ui/UIManager.h **** #include <system.h>
   7:library/ui/UIManager.h **** 
   8:library/ui/UIManager.h **** using namespace daisy;
   9:library/ui/UIManager.h **** using namespace patch_sm;
  10:library/ui/UIManager.h **** using namespace daisy;
  11:library/ui/UIManager.h **** using namespace patch_sm;
  12:library/ui/UIManager.h **** 
  13:library/ui/UIManager.h **** namespace sudwalfulkaan {
  14:library/ui/UIManager.h **** 
  15:library/ui/UIManager.h ****   enum class MappingType { None, Linear, Log };
  16:library/ui/UIManager.h **** 
  17:library/ui/UIManager.h ****   struct PotConfig {
  18:library/ui/UIManager.h ****       float initial_value = 0.f;
  19:library/ui/UIManager.h ****       float slew_rate = 0.05f;      // smoothing speed (0..1)
  20:library/ui/UIManager.h ****       float min_value = 0.f;
  21:library/ui/UIManager.h ****       float max_value = 1.f;
  22:library/ui/UIManager.h ****       MappingType mapping = MappingType::None;
  23:library/ui/UIManager.h ****   };
  24:library/ui/UIManager.h **** 
ARM GAS  /var/folders/tn/k4r6j7b53kv6zg3nk3m4krpm0000gp/T//cce5pTHt.s 			page 12


  25:library/ui/UIManager.h ****   class UIManager {
 119              		.loc 9 25 9 is_stmt 1 view -0
 120              		.cfi_startproc
 121              		@ args = 0, pretend = 0, frame = 0
 122              		@ frame_needed = 0, uses_anonymous_args = 0
 123              		@ link register save eliminated.
 124              	.LBB602:
 125              	.LBI602:
 126              		.file 10 "../../libDaisy//src/hid/switch.h"
   1:../../libDaisy//src/hid/switch.h **** #pragma once
   2:../../libDaisy//src/hid/switch.h **** #ifndef DSY_SWITCH_H
   3:../../libDaisy//src/hid/switch.h **** #define DSY_SWITCH_H
   4:../../libDaisy//src/hid/switch.h **** #include "daisy_core.h"
   5:../../libDaisy//src/hid/switch.h **** #include "per/gpio.h"
   6:../../libDaisy//src/hid/switch.h **** #include "sys/system.h"
   7:../../libDaisy//src/hid/switch.h **** 
   8:../../libDaisy//src/hid/switch.h **** namespace daisy
   9:../../libDaisy//src/hid/switch.h **** {
  10:../../libDaisy//src/hid/switch.h **** /** 
  11:../../libDaisy//src/hid/switch.h ****     Generic Class for handling momentary/latching switches \n 
  12:../../libDaisy//src/hid/switch.h ****     Inspired/influenced by Mutable Instruments (pichenettes) Switch classes
  13:../../libDaisy//src/hid/switch.h ****     @author Stephen Hensley
  14:../../libDaisy//src/hid/switch.h ****     @date December 2019
  15:../../libDaisy//src/hid/switch.h ****     @ingroup controls
  16:../../libDaisy//src/hid/switch.h **** */
  17:../../libDaisy//src/hid/switch.h **** class Switch
  18:../../libDaisy//src/hid/switch.h **** {
  19:../../libDaisy//src/hid/switch.h ****   public:
  20:../../libDaisy//src/hid/switch.h ****     /** Specifies the expected behavior of the switch */
  21:../../libDaisy//src/hid/switch.h ****     enum Type
  22:../../libDaisy//src/hid/switch.h ****     {
  23:../../libDaisy//src/hid/switch.h ****         TYPE_TOGGLE,    /**< & */
  24:../../libDaisy//src/hid/switch.h ****         TYPE_MOMENTARY, /**< & */
  25:../../libDaisy//src/hid/switch.h ****     };
  26:../../libDaisy//src/hid/switch.h ****     /** Specifies whether the pressed is HIGH or LOW. */
  27:../../libDaisy//src/hid/switch.h ****     enum Polarity
  28:../../libDaisy//src/hid/switch.h ****     {
  29:../../libDaisy//src/hid/switch.h ****         POLARITY_NORMAL,   /**< & */
  30:../../libDaisy//src/hid/switch.h ****         POLARITY_INVERTED, /**< & */
  31:../../libDaisy//src/hid/switch.h ****     };
  32:../../libDaisy//src/hid/switch.h **** 
  33:../../libDaisy//src/hid/switch.h ****     /** Specifies whether to use built-in Pull Up/Down resistors to hold button at a given state wh
  34:../../libDaisy//src/hid/switch.h ****     enum Pull
  35:../../libDaisy//src/hid/switch.h ****     {
  36:../../libDaisy//src/hid/switch.h ****         PULL_UP,   /**< & */
  37:../../libDaisy//src/hid/switch.h ****         PULL_DOWN, /**< & */
  38:../../libDaisy//src/hid/switch.h ****         PULL_NONE, /**< & */
  39:../../libDaisy//src/hid/switch.h ****     };
  40:../../libDaisy//src/hid/switch.h **** 
  41:../../libDaisy//src/hid/switch.h ****     Switch() {}
  42:../../libDaisy//src/hid/switch.h ****     ~Switch() {}
 127              		.loc 10 42 5 view .LVU19
 128              		.loc 10 42 5 is_stmt 0 view .LVU20
 129              	.LBE602:
 130              	.LBB603:
 131              	.LBI603:
 132              		.loc 10 42 5 is_stmt 1 view .LVU21
ARM GAS  /var/folders/tn/k4r6j7b53kv6zg3nk3m4krpm0000gp/T//cce5pTHt.s 			page 13


 133              		.loc 10 42 5 is_stmt 0 view .LVU22
 134              	.LBE603:
 135              		.loc 9 25 9 view .LVU23
 136 0000 7047     		bx	lr
 137              		.cfi_endproc
 138              	.LFE5814:
 140              		.weak	_ZN13sudwalfulkaan9UIManagerD1Ev
 141              		.thumb_set _ZN13sudwalfulkaan9UIManagerD1Ev,_ZN13sudwalfulkaan9UIManagerD2Ev
 142 0002 00BF     		.section	.text._ZN13sudwalfulkaan14StereoReverbScD2Ev,"axG",%progbits,_ZN13sudwalfulkaan14StereoRe
 143              		.align	1
 144              		.p2align 2,,3
 145              		.weak	_ZN13sudwalfulkaan14StereoReverbScD2Ev
 146              		.syntax unified
 147              		.thumb
 148              		.thumb_func
 150              	_ZN13sudwalfulkaan14StereoReverbScD2Ev:
 151              	.LVL3:
 152              	.LFB5817:
 153              		.file 11 "library/effects/StereoReverbSc.h"
   1:library/effects/StereoReverbSc.h **** #pragma once
   2:library/effects/StereoReverbSc.h **** #ifndef SWF_STEREOREVERBSC_H
   3:library/effects/StereoReverbSc.h **** #define SWF_STEREOREVERBSC_H
   4:library/effects/StereoReverbSc.h **** 
   5:library/effects/StereoReverbSc.h **** #include "daisysp.h"
   6:library/effects/StereoReverbSc.h **** #include "daisysp-lgpl.h"
   7:library/effects/StereoReverbSc.h **** 
   8:library/effects/StereoReverbSc.h **** 
   9:library/effects/StereoReverbSc.h **** using namespace daisysp;
  10:library/effects/StereoReverbSc.h **** 
  11:library/effects/StereoReverbSc.h **** namespace sudwalfulkaan {
  12:library/effects/StereoReverbSc.h ****     class StereoReverbSc {
 154              		.loc 11 12 11 is_stmt 1 view -0
 155              		.cfi_startproc
 156              		@ args = 0, pretend = 0, frame = 0
 157              		@ frame_needed = 0, uses_anonymous_args = 0
 158              		@ link register save eliminated.
 159              	.LBB604:
 160              	.LBI604:
 161              		.file 12 "../../DaisySP//DaisySP-LGPL/Source/Effects/reverbsc.h"
   1:../../DaisySP//DaisySP-LGPL/Source/Effects/reverbsc.h **** /*
   2:../../DaisySP//DaisySP-LGPL/Source/Effects/reverbsc.h **** Copyright (c) 2023 Electrosmith, Corp, Sean Costello, Istvan Varga, Paul Batchelor
   3:../../DaisySP//DaisySP-LGPL/Source/Effects/reverbsc.h **** 
   4:../../DaisySP//DaisySP-LGPL/Source/Effects/reverbsc.h **** Use of this source code is governed by the LGPL V2.1
   5:../../DaisySP//DaisySP-LGPL/Source/Effects/reverbsc.h **** license that can be found in the LICENSE file or at
   6:../../DaisySP//DaisySP-LGPL/Source/Effects/reverbsc.h **** https://opensource.org/license/lgpl-2-1/
   7:../../DaisySP//DaisySP-LGPL/Source/Effects/reverbsc.h **** */
   8:../../DaisySP//DaisySP-LGPL/Source/Effects/reverbsc.h **** 
   9:../../DaisySP//DaisySP-LGPL/Source/Effects/reverbsc.h **** #pragma once
  10:../../DaisySP//DaisySP-LGPL/Source/Effects/reverbsc.h **** #ifndef DSYSP_REVERBSC_H
  11:../../DaisySP//DaisySP-LGPL/Source/Effects/reverbsc.h **** #define DSYSP_REVERBSC_H
  12:../../DaisySP//DaisySP-LGPL/Source/Effects/reverbsc.h **** 
  13:../../DaisySP//DaisySP-LGPL/Source/Effects/reverbsc.h **** #define DSY_REVERBSC_MAX_SIZE 98936
  14:../../DaisySP//DaisySP-LGPL/Source/Effects/reverbsc.h **** 
  15:../../DaisySP//DaisySP-LGPL/Source/Effects/reverbsc.h **** namespace daisysp
  16:../../DaisySP//DaisySP-LGPL/Source/Effects/reverbsc.h **** {
  17:../../DaisySP//DaisySP-LGPL/Source/Effects/reverbsc.h **** /**Delay line for internal reverb use
  18:../../DaisySP//DaisySP-LGPL/Source/Effects/reverbsc.h **** */
ARM GAS  /var/folders/tn/k4r6j7b53kv6zg3nk3m4krpm0000gp/T//cce5pTHt.s 			page 14


  19:../../DaisySP//DaisySP-LGPL/Source/Effects/reverbsc.h **** typedef struct
  20:../../DaisySP//DaisySP-LGPL/Source/Effects/reverbsc.h **** {
  21:../../DaisySP//DaisySP-LGPL/Source/Effects/reverbsc.h ****     int    write_pos;         /**< write position */
  22:../../DaisySP//DaisySP-LGPL/Source/Effects/reverbsc.h ****     int    buffer_size;       /**< buffer size */
  23:../../DaisySP//DaisySP-LGPL/Source/Effects/reverbsc.h ****     int    read_pos;          /**< read position */
  24:../../DaisySP//DaisySP-LGPL/Source/Effects/reverbsc.h ****     int    read_pos_frac;     /**< fractional component of read pos */
  25:../../DaisySP//DaisySP-LGPL/Source/Effects/reverbsc.h ****     int    read_pos_frac_inc; /**< increment for fractional */
  26:../../DaisySP//DaisySP-LGPL/Source/Effects/reverbsc.h ****     int    dummy;             /**<  dummy var */
  27:../../DaisySP//DaisySP-LGPL/Source/Effects/reverbsc.h ****     int    seed_val;          /**< randseed */
  28:../../DaisySP//DaisySP-LGPL/Source/Effects/reverbsc.h ****     int    rand_line_cnt;     /**< number of random lines */
  29:../../DaisySP//DaisySP-LGPL/Source/Effects/reverbsc.h ****     float  filter_state;      /**< state of filter */
  30:../../DaisySP//DaisySP-LGPL/Source/Effects/reverbsc.h ****     float *buf;               /**< buffer ptr */
  31:../../DaisySP//DaisySP-LGPL/Source/Effects/reverbsc.h **** } ReverbScDl;
  32:../../DaisySP//DaisySP-LGPL/Source/Effects/reverbsc.h **** 
  33:../../DaisySP//DaisySP-LGPL/Source/Effects/reverbsc.h **** /** Stereo Reverb */
  34:../../DaisySP//DaisySP-LGPL/Source/Effects/reverbsc.h **** class ReverbSc
  35:../../DaisySP//DaisySP-LGPL/Source/Effects/reverbsc.h **** {
  36:../../DaisySP//DaisySP-LGPL/Source/Effects/reverbsc.h ****   public:
  37:../../DaisySP//DaisySP-LGPL/Source/Effects/reverbsc.h ****     ReverbSc() {}
  38:../../DaisySP//DaisySP-LGPL/Source/Effects/reverbsc.h ****     ~ReverbSc() {}
 162              		.loc 12 38 5 view .LVU25
 163              		.loc 12 38 5 is_stmt 0 view .LVU26
 164              	.LBE604:
 165              		.loc 11 12 11 view .LVU27
 166 0000 7047     		bx	lr
 167              		.cfi_endproc
 168              	.LFE5817:
 170              		.weak	_ZN13sudwalfulkaan14StereoReverbScD1Ev
 171              		.thumb_set _ZN13sudwalfulkaan14StereoReverbScD1Ev,_ZN13sudwalfulkaan14StereoReverbScD2Ev
 172 0002 00BF     		.section	.text._ZN13sudwalfulkaan12StereoPhaserD2Ev,"axG",%progbits,_ZN13sudwalfulkaan12StereoPhas
 173              		.align	1
 174              		.p2align 2,,3
 175              		.weak	_ZN13sudwalfulkaan12StereoPhaserD2Ev
 176              		.syntax unified
 177              		.thumb
 178              		.thumb_func
 180              	_ZN13sudwalfulkaan12StereoPhaserD2Ev:
 181              	.LVL4:
 182              	.LFB5820:
 183              		.file 13 "library/effects/StereoPhaser.h"
   1:library/effects/StereoPhaser.h **** #pragma once
   2:library/effects/StereoPhaser.h **** 
   3:library/effects/StereoPhaser.h **** #include <cstddef>
   4:library/effects/StereoPhaser.h **** #include "daisysp.h"
   5:library/effects/StereoPhaser.h **** 
   6:library/effects/StereoPhaser.h **** namespace sudwalfulkaan
   7:library/effects/StereoPhaser.h **** {
   8:library/effects/StereoPhaser.h ****     class StereoPhaser
 184              		.loc 13 8 11 is_stmt 1 view -0
 185              		.cfi_startproc
 186              		@ args = 0, pretend = 0, frame = 0
 187              		@ frame_needed = 0, uses_anonymous_args = 0
 188              		@ link register save eliminated.
 189              	.LBB605:
 190              	.LBI605:
 191              		.file 14 "../../DaisySP//Source/Synthesis/oscillator.h"
   1:../../DaisySP//Source/Synthesis/oscillator.h **** /*
ARM GAS  /var/folders/tn/k4r6j7b53kv6zg3nk3m4krpm0000gp/T//cce5pTHt.s 			page 15


   2:../../DaisySP//Source/Synthesis/oscillator.h **** Copyright (c) 2020 Electrosmith, Corp
   3:../../DaisySP//Source/Synthesis/oscillator.h **** 
   4:../../DaisySP//Source/Synthesis/oscillator.h **** Use of this source code is governed by an MIT-style
   5:../../DaisySP//Source/Synthesis/oscillator.h **** license that can be found in the LICENSE file or at
   6:../../DaisySP//Source/Synthesis/oscillator.h **** https://opensource.org/licenses/MIT.
   7:../../DaisySP//Source/Synthesis/oscillator.h **** */
   8:../../DaisySP//Source/Synthesis/oscillator.h **** 
   9:../../DaisySP//Source/Synthesis/oscillator.h **** #pragma once
  10:../../DaisySP//Source/Synthesis/oscillator.h **** #ifndef DSY_OSCILLATOR_H
  11:../../DaisySP//Source/Synthesis/oscillator.h **** #define DSY_OSCILLATOR_H
  12:../../DaisySP//Source/Synthesis/oscillator.h **** #include <stdint.h>
  13:../../DaisySP//Source/Synthesis/oscillator.h **** #include "Utility/dsp.h"
  14:../../DaisySP//Source/Synthesis/oscillator.h **** #ifdef __cplusplus
  15:../../DaisySP//Source/Synthesis/oscillator.h **** 
  16:../../DaisySP//Source/Synthesis/oscillator.h **** namespace daisysp
  17:../../DaisySP//Source/Synthesis/oscillator.h **** {
  18:../../DaisySP//Source/Synthesis/oscillator.h **** /** Synthesis of several waveforms, including polyBLEP bandlimited waveforms.
  19:../../DaisySP//Source/Synthesis/oscillator.h **** */
  20:../../DaisySP//Source/Synthesis/oscillator.h **** class Oscillator
  21:../../DaisySP//Source/Synthesis/oscillator.h **** {
  22:../../DaisySP//Source/Synthesis/oscillator.h ****   public:
  23:../../DaisySP//Source/Synthesis/oscillator.h ****     Oscillator() {}
  24:../../DaisySP//Source/Synthesis/oscillator.h ****     ~Oscillator() {}
 192              		.loc 14 24 5 view .LVU29
 193              		.loc 14 24 5 is_stmt 0 view .LVU30
 194              	.LBE605:
 195              	.LBB606:
 196              	.LBI606:
 197              		.loc 14 24 5 is_stmt 1 view .LVU31
 198              		.loc 14 24 5 is_stmt 0 view .LVU32
 199              	.LBE606:
 200              		.loc 13 8 11 view .LVU33
 201 0000 7047     		bx	lr
 202              		.cfi_endproc
 203              	.LFE5820:
 205              		.weak	_ZN13sudwalfulkaan12StereoPhaserD1Ev
 206              		.thumb_set _ZN13sudwalfulkaan12StereoPhaserD1Ev,_ZN13sudwalfulkaan12StereoPhaserD2Ev
 207 0002 00BF     		.section	.rodata._Z15OnToggleChangedb.str1.4,"aMS",%progbits,1
 208              		.align	2
 209              	.LC4:
 210 0000 4F4E00   		.ascii	"ON\000"
 211 0003 00       		.align	2
 212              	.LC5:
 213 0004 4F464600 		.ascii	"OFF\000"
 214              		.align	2
 215              	.LC6:
 216 0008 546F6767 		.ascii	"Toggle is now %s\012\000"
 216      6C652069 
 216      73206E6F 
 216      77202573 
 216      0A00
 217              		.section	.text._Z15OnToggleChangedb,"ax",%progbits
 218              		.align	1
 219              		.p2align 2,,3
 220              		.global	_Z15OnToggleChangedb
 221              		.syntax unified
 222              		.thumb
ARM GAS  /var/folders/tn/k4r6j7b53kv6zg3nk3m4krpm0000gp/T//cce5pTHt.s 			page 16


 223              		.thumb_func
 225              	_Z15OnToggleChangedb:
 226              	.LVL5:
 227              	.LFB5242:
 228              		.file 15 "DigitalHeat.cpp"
   1:DigitalHeat.cpp **** #include "daisysp.h"
   2:DigitalHeat.cpp **** #include "daisysp-lgpl.h"
   3:DigitalHeat.cpp **** #include "daisy_patch_sm.h"
   4:DigitalHeat.cpp **** 
   5:DigitalHeat.cpp **** #include "library/effects/LinkwitzRileyCrossover.h"
   6:DigitalHeat.cpp **** #include "library/effects/LinkwitzRileyCrossover.cpp"
   7:DigitalHeat.cpp **** #include "library/effects/Saturation.h"
   8:DigitalHeat.cpp **** #include "library/effects/Saturation.cpp"
   9:DigitalHeat.cpp **** #include "library/ui/UIManager.h"
  10:DigitalHeat.cpp **** #include "library/ui/UIManager.cpp"
  11:DigitalHeat.cpp **** #include "library/effects/SwfBiquad.h"
  12:DigitalHeat.cpp **** #include "library/effects/SwfBiquad.cpp"
  13:DigitalHeat.cpp **** #include "library/effects/StereoReverbSc.h"
  14:DigitalHeat.cpp **** #include "library/effects/StereoReverbSc.cpp"
  15:DigitalHeat.cpp **** #include "library/effects/StereoPhaser.h"
  16:DigitalHeat.cpp **** #include "library/effects/StereoPhaser.cpp"
  17:DigitalHeat.cpp **** 
  18:DigitalHeat.cpp **** #include "library/tools.cpp"
  19:DigitalHeat.cpp **** 
  20:DigitalHeat.cpp **** using namespace daisy;
  21:DigitalHeat.cpp **** using namespace patch_sm;
  22:DigitalHeat.cpp **** using namespace daisysp;
  23:DigitalHeat.cpp **** using namespace sudwalfulkaan;
  24:DigitalHeat.cpp **** 
  25:DigitalHeat.cpp **** #define SAMPLE_RATE 48000
  26:DigitalHeat.cpp **** #define REVERB_BUFFER_SIZE 48000
  27:DigitalHeat.cpp **** DSY_SDRAM_BSS float reverb_buffer[REVERB_BUFFER_SIZE];
  28:DigitalHeat.cpp **** 
  29:DigitalHeat.cpp **** #define PHASER_BUFFER_SIZE 4096
  30:DigitalHeat.cpp **** DSY_SDRAM_BSS float phaser_buffer[PHASER_BUFFER_SIZE];
  31:DigitalHeat.cpp **** 
  32:DigitalHeat.cpp **** static DaisyPatchSM hw;
  33:DigitalHeat.cpp **** static UIManager ui;
  34:DigitalHeat.cpp **** 
  35:DigitalHeat.cpp **** Svf 							svf_l, svf_r;
  36:DigitalHeat.cpp **** sudwalfulkaan::Saturation  		sat_l, sat_r;
  37:DigitalHeat.cpp **** sudwalfulkaan::SwfBiquad		shelf_l, shelf_r;
  38:DigitalHeat.cpp **** sudwalfulkaan::StereoReverbSc 	reverb;
  39:DigitalHeat.cpp **** sudwalfulkaan::StereoPhaser 	phaser;
  40:DigitalHeat.cpp **** 
  41:DigitalHeat.cpp **** 
  42:DigitalHeat.cpp **** bool	bypass	= true;
  43:DigitalHeat.cpp **** float 	smoothedReverb, smoothedShelf, smoothedGain, smoothedCutoff, effectFeedback;
  44:DigitalHeat.cpp **** 
  45:DigitalHeat.cpp **** enum EffectType {
  46:DigitalHeat.cpp **** 	EFFECT_BYPASS,
  47:DigitalHeat.cpp ****     EFFECT_REVERB,
  48:DigitalHeat.cpp ****     EFFECT_PHASER,
  49:DigitalHeat.cpp ****     EFFECT_COUNT
  50:DigitalHeat.cpp **** };
  51:DigitalHeat.cpp **** 
  52:DigitalHeat.cpp **** EffectType currentEffect = EFFECT_BYPASS;
ARM GAS  /var/folders/tn/k4r6j7b53kv6zg3nk3m4krpm0000gp/T//cce5pTHt.s 			page 17


  53:DigitalHeat.cpp **** 
  54:DigitalHeat.cpp **** // Callback functions
  55:DigitalHeat.cpp **** void OnPotChanged(int index, float value) {
  56:DigitalHeat.cpp **** 	switch(index) {
  57:DigitalHeat.cpp **** 		case patch_sm::CV_1:
  58:DigitalHeat.cpp **** 		case patch_sm::CV_4:
  59:DigitalHeat.cpp **** 			hw.PrintLine("DEBUG: CV1 for effect feedback = %.2f", ui.GetPotValue(index));
  60:DigitalHeat.cpp **** 			hw.PrintLine("DEBUG: CV4 for effect amount = %.2f", ui.GetPotValue(index));
  61:DigitalHeat.cpp **** 
  62:DigitalHeat.cpp **** 			effectFeedback = ui.GetPotValue(patch_sm::CV_1)+ui.GetRawPotValue(patch_sm::CV_4);
  63:DigitalHeat.cpp **** 			hw.PrintLine("DEBUG: Effect feedback = %.2f", effectFeedback);
  64:DigitalHeat.cpp **** 
  65:DigitalHeat.cpp **** 			reverb.SetFeedback(effectFeedback);
  66:DigitalHeat.cpp **** 			phaser.SetMix(effectFeedback);
  67:DigitalHeat.cpp **** 
  68:DigitalHeat.cpp **** 			svf_l.SetFreq(ui.GetPotValue(patch_sm::CV_4));
  69:DigitalHeat.cpp **** 			svf_r.SetFreq(ui.GetPotValue(patch_sm::CV_4));
  70:DigitalHeat.cpp **** 			break;
  71:DigitalHeat.cpp **** 
  72:DigitalHeat.cpp **** 		case patch_sm::CV_2:
  73:DigitalHeat.cpp **** 			hw.PrintLine("DEBUG: CV2 for high shelf = %.2f", ui.GetPotValue(index));
  74:DigitalHeat.cpp **** 			shelf_l.SetGainDb(value);
  75:DigitalHeat.cpp **** 			shelf_r.SetGainDb(value);
  76:DigitalHeat.cpp **** 			break;
  77:DigitalHeat.cpp **** 
  78:DigitalHeat.cpp **** 		case patch_sm::CV_3:
  79:DigitalHeat.cpp **** 			hw.PrintLine("DEBUG: CV3 for saturation = %.2f", ui.GetPotValue(index));
  80:DigitalHeat.cpp **** 			sat_l.SetGain(value);
  81:DigitalHeat.cpp **** 			sat_r.SetGain(value);
  82:DigitalHeat.cpp **** 			break;			
  83:DigitalHeat.cpp **** 	}
  84:DigitalHeat.cpp **** }
  85:DigitalHeat.cpp **** 
  86:DigitalHeat.cpp **** void OnToggleChanged(bool toggleState) {
 229              		.loc 15 86 40 is_stmt 1 view -0
 230              		.cfi_startproc
 231              		@ args = 0, pretend = 0, frame = 0
 232              		@ frame_needed = 0, uses_anonymous_args = 0
 233              		@ link register save eliminated.
  87:DigitalHeat.cpp **** 	hw.PrintLine("Toggle is now %s\n", toggleState ? "ON" : "OFF");
 234              		.loc 15 87 2 view .LVU35
  86:DigitalHeat.cpp **** 	hw.PrintLine("Toggle is now %s\n", toggleState ? "ON" : "OFF");
 235              		.loc 15 86 40 is_stmt 0 view .LVU36
 236 0000 0146     		mov	r1, r0
 237              		.loc 15 87 14 view .LVU37
 238 0002 044A     		ldr	r2, .L10
 239 0004 044B     		ldr	r3, .L10+4
 240              	.LVL6:
 241              	.LBB607:
 242              	.LBI607:
  66:../../libDaisy//src/daisy_patch_sm.h **** 
  67:../../libDaisy//src/daisy_patch_sm.h ****         /** Initializes the memories, and core peripherals for the Daisy Patch SM */
  68:../../libDaisy//src/daisy_patch_sm.h ****         void Init();
  69:../../libDaisy//src/daisy_patch_sm.h **** 
  70:../../libDaisy//src/daisy_patch_sm.h ****         /** Starts a non-interleaving audio callback */
  71:../../libDaisy//src/daisy_patch_sm.h ****         void StartAudio(AudioHandle::AudioCallback cb);
  72:../../libDaisy//src/daisy_patch_sm.h **** 
ARM GAS  /var/folders/tn/k4r6j7b53kv6zg3nk3m4krpm0000gp/T//cce5pTHt.s 			page 18


  73:../../libDaisy//src/daisy_patch_sm.h ****         /** Starts an interleaving audio callback */
  74:../../libDaisy//src/daisy_patch_sm.h ****         void StartAudio(AudioHandle::InterleavingAudioCallback cb);
  75:../../libDaisy//src/daisy_patch_sm.h **** 
  76:../../libDaisy//src/daisy_patch_sm.h ****         /** Changes the callback that is executing.
  77:../../libDaisy//src/daisy_patch_sm.h ****          *  This may cause clicks if done while audio is processing.
  78:../../libDaisy//src/daisy_patch_sm.h ****          */
  79:../../libDaisy//src/daisy_patch_sm.h ****         void ChangeAudioCallback(AudioHandle::AudioCallback cb);
  80:../../libDaisy//src/daisy_patch_sm.h **** 
  81:../../libDaisy//src/daisy_patch_sm.h ****         /** Changes the callback that is executing.
  82:../../libDaisy//src/daisy_patch_sm.h ****          *  This may cause clicks if done while audio is processing.
  83:../../libDaisy//src/daisy_patch_sm.h ****          */
  84:../../libDaisy//src/daisy_patch_sm.h ****         void ChangeAudioCallback(AudioHandle::InterleavingAudioCallback cb);
  85:../../libDaisy//src/daisy_patch_sm.h **** 
  86:../../libDaisy//src/daisy_patch_sm.h ****         /** Stops the transmission of audio. */
  87:../../libDaisy//src/daisy_patch_sm.h ****         void StopAudio();
  88:../../libDaisy//src/daisy_patch_sm.h **** 
  89:../../libDaisy//src/daisy_patch_sm.h ****         /** Sets the number of samples processed in an audio callback. 
  90:../../libDaisy//src/daisy_patch_sm.h ****          *  This will only take effect on the next invocation of `StartAudio`
  91:../../libDaisy//src/daisy_patch_sm.h ****          */
  92:../../libDaisy//src/daisy_patch_sm.h ****         void SetAudioBlockSize(size_t size);
  93:../../libDaisy//src/daisy_patch_sm.h **** 
  94:../../libDaisy//src/daisy_patch_sm.h ****         /** Sets the samplerate for the audio engine 
  95:../../libDaisy//src/daisy_patch_sm.h ****          *  This will set it to the closest valid samplerate. Options being:
  96:../../libDaisy//src/daisy_patch_sm.h ****          *  8kHz, 16kHz, 32kHz, 48kHz, and 96kHz
  97:../../libDaisy//src/daisy_patch_sm.h ****          */
  98:../../libDaisy//src/daisy_patch_sm.h ****         void SetAudioSampleRate(float sr);
  99:../../libDaisy//src/daisy_patch_sm.h **** 
 100:../../libDaisy//src/daisy_patch_sm.h ****         void SetAudioSampleRate(SaiHandle::Config::SampleRate sample_rate);
 101:../../libDaisy//src/daisy_patch_sm.h **** 
 102:../../libDaisy//src/daisy_patch_sm.h ****         /** Returns the number of samples processed in an audio callback */
 103:../../libDaisy//src/daisy_patch_sm.h ****         size_t AudioBlockSize();
 104:../../libDaisy//src/daisy_patch_sm.h **** 
 105:../../libDaisy//src/daisy_patch_sm.h ****         /** Returns the audio engine's samplerate in Hz */
 106:../../libDaisy//src/daisy_patch_sm.h ****         float AudioSampleRate();
 107:../../libDaisy//src/daisy_patch_sm.h **** 
 108:../../libDaisy//src/daisy_patch_sm.h ****         /** Returns the rate at which the audio callback will be called in Hz */
 109:../../libDaisy//src/daisy_patch_sm.h ****         float AudioCallbackRate();
 110:../../libDaisy//src/daisy_patch_sm.h **** 
 111:../../libDaisy//src/daisy_patch_sm.h ****         /** Starts the Control ADCs 
 112:../../libDaisy//src/daisy_patch_sm.h ****          * 
 113:../../libDaisy//src/daisy_patch_sm.h ****          *  This is started automatically when Init() is called.
 114:../../libDaisy//src/daisy_patch_sm.h ****          */
 115:../../libDaisy//src/daisy_patch_sm.h ****         void StartAdc();
 116:../../libDaisy//src/daisy_patch_sm.h **** 
 117:../../libDaisy//src/daisy_patch_sm.h ****         /** Stops the Control ADCs */
 118:../../libDaisy//src/daisy_patch_sm.h ****         void StopAdc();
 119:../../libDaisy//src/daisy_patch_sm.h **** 
 120:../../libDaisy//src/daisy_patch_sm.h ****         /** Reads and filters all of the analog control inputs */
 121:../../libDaisy//src/daisy_patch_sm.h ****         void ProcessAnalogControls();
 122:../../libDaisy//src/daisy_patch_sm.h **** 
 123:../../libDaisy//src/daisy_patch_sm.h ****         /** Reads and debounces any of the digital control inputs 
 124:../../libDaisy//src/daisy_patch_sm.h ****          *  This does nothing on this board at this time.
 125:../../libDaisy//src/daisy_patch_sm.h ****          */
 126:../../libDaisy//src/daisy_patch_sm.h ****         void ProcessDigitalControls();
 127:../../libDaisy//src/daisy_patch_sm.h **** 
 128:../../libDaisy//src/daisy_patch_sm.h ****         /** Does both of the above */
 129:../../libDaisy//src/daisy_patch_sm.h ****         void ProcessAllControls()
ARM GAS  /var/folders/tn/k4r6j7b53kv6zg3nk3m4krpm0000gp/T//cce5pTHt.s 			page 19


 130:../../libDaisy//src/daisy_patch_sm.h ****         {
 131:../../libDaisy//src/daisy_patch_sm.h ****             ProcessAnalogControls();
 132:../../libDaisy//src/daisy_patch_sm.h ****             ProcessDigitalControls();
 133:../../libDaisy//src/daisy_patch_sm.h ****         }
 134:../../libDaisy//src/daisy_patch_sm.h **** 
 135:../../libDaisy//src/daisy_patch_sm.h ****         /** Returns the current value for one of the ADCs */
 136:../../libDaisy//src/daisy_patch_sm.h ****         float GetAdcValue(int idx);
 137:../../libDaisy//src/daisy_patch_sm.h **** 
 138:../../libDaisy//src/daisy_patch_sm.h ****         /** Returns the STM32 port/pin combo for the desired pin (or an invalid pin for HW only pin
 139:../../libDaisy//src/daisy_patch_sm.h ****          *
 140:../../libDaisy//src/daisy_patch_sm.h ****          *  Macros at top of file can be used in place of separate arguments (i.e. GetPin(A4), etc.
 141:../../libDaisy//src/daisy_patch_sm.h ****          * 
 142:../../libDaisy//src/daisy_patch_sm.h ****          *  \param bank should be one of the PinBank options above
 143:../../libDaisy//src/daisy_patch_sm.h ****          *  \param idx pin number between 1 and 10 for each of the pins on each header.
 144:../../libDaisy//src/daisy_patch_sm.h ****          *  \deprecated please use the Pin definitions in daisy::patch_sm instead
 145:../../libDaisy//src/daisy_patch_sm.h ****          */
 146:../../libDaisy//src/daisy_patch_sm.h ****         dsy_gpio_pin GetPin(const PinBank bank, const int idx);
 147:../../libDaisy//src/daisy_patch_sm.h **** 
 148:../../libDaisy//src/daisy_patch_sm.h ****         /** Starts the DAC for the CV Outputs 
 149:../../libDaisy//src/daisy_patch_sm.h ****          * 
 150:../../libDaisy//src/daisy_patch_sm.h ****          *  By default this starts by running the 
 151:../../libDaisy//src/daisy_patch_sm.h ****          *  internal callback at 48kHz, which will 
 152:../../libDaisy//src/daisy_patch_sm.h ****          *  update the values based on the SetCvOut 
 153:../../libDaisy//src/daisy_patch_sm.h ****          *  function.
 154:../../libDaisy//src/daisy_patch_sm.h ****          * 
 155:../../libDaisy//src/daisy_patch_sm.h ****          *  This is started automatically when Init() is called.
 156:../../libDaisy//src/daisy_patch_sm.h ****          */
 157:../../libDaisy//src/daisy_patch_sm.h ****         void StartDac(DacHandle::DacCallback callback = nullptr);
 158:../../libDaisy//src/daisy_patch_sm.h **** 
 159:../../libDaisy//src/daisy_patch_sm.h ****         /** Stop the DAC from updating. 
 160:../../libDaisy//src/daisy_patch_sm.h ****          *  This will suspend the CV Outputs from changing 
 161:../../libDaisy//src/daisy_patch_sm.h ****          */
 162:../../libDaisy//src/daisy_patch_sm.h ****         void StopDac();
 163:../../libDaisy//src/daisy_patch_sm.h **** 
 164:../../libDaisy//src/daisy_patch_sm.h ****         /** Sets specified DAC channel to the target voltage. 
 165:../../libDaisy//src/daisy_patch_sm.h ****          *  This may not be 100% accurate without calibration. 
 166:../../libDaisy//src/daisy_patch_sm.h ****          *  
 167:../../libDaisy//src/daisy_patch_sm.h ****          *  \todo Add Calibration to CV Outputs
 168:../../libDaisy//src/daisy_patch_sm.h ****          * 
 169:../../libDaisy//src/daisy_patch_sm.h ****          *  \param channel desired channel to update. 0 is both, otherwise 1 or 2 are valid.
 170:../../libDaisy//src/daisy_patch_sm.h ****          *  \param voltage value in Volts that you'd like to write to the DAC. The valid range is 0
 171:../../libDaisy//src/daisy_patch_sm.h ****          */
 172:../../libDaisy//src/daisy_patch_sm.h ****         void WriteCvOut(const int channel, float voltage);
 173:../../libDaisy//src/daisy_patch_sm.h **** 
 174:../../libDaisy//src/daisy_patch_sm.h ****         /** Here are some wrappers around libDaisy Static functions 
 175:../../libDaisy//src/daisy_patch_sm.h ****          *  to provide simpler syntax to those who prefer it. */
 176:../../libDaisy//src/daisy_patch_sm.h **** 
 177:../../libDaisy//src/daisy_patch_sm.h ****         /** Delays for a specified number of milliseconds */
 178:../../libDaisy//src/daisy_patch_sm.h ****         inline void Delay(uint32_t milliseconds)
 179:../../libDaisy//src/daisy_patch_sm.h ****         {
 180:../../libDaisy//src/daisy_patch_sm.h ****             System::Delay(milliseconds);
 181:../../libDaisy//src/daisy_patch_sm.h ****         }
 182:../../libDaisy//src/daisy_patch_sm.h **** 
 183:../../libDaisy//src/daisy_patch_sm.h ****         /** Gets a random 32-bit value */
 184:../../libDaisy//src/daisy_patch_sm.h ****         inline uint32_t GetRandomValue() { return Random::GetValue(); }
 185:../../libDaisy//src/daisy_patch_sm.h **** 
 186:../../libDaisy//src/daisy_patch_sm.h ****         /** Gets a random floating point value between the specified minimum, and maxmimum */
ARM GAS  /var/folders/tn/k4r6j7b53kv6zg3nk3m4krpm0000gp/T//cce5pTHt.s 			page 20


 187:../../libDaisy//src/daisy_patch_sm.h ****         inline float GetRandomFloat(float min = 0.f, float max = 1.f)
 188:../../libDaisy//src/daisy_patch_sm.h ****         {
 189:../../libDaisy//src/daisy_patch_sm.h ****             return Random::GetFloat(min, max);
 190:../../libDaisy//src/daisy_patch_sm.h ****         }
 191:../../libDaisy//src/daisy_patch_sm.h **** 
 192:../../libDaisy//src/daisy_patch_sm.h ****         void SetLed(bool state);
 193:../../libDaisy//src/daisy_patch_sm.h **** 
 194:../../libDaisy//src/daisy_patch_sm.h ****         /** Print formatted debug log message
 195:../../libDaisy//src/daisy_patch_sm.h ****          */
 196:../../libDaisy//src/daisy_patch_sm.h ****         template <typename... VA>
 197:../../libDaisy//src/daisy_patch_sm.h ****         static void Print(const char* format, VA... va)
 198:../../libDaisy//src/daisy_patch_sm.h ****         {
 199:../../libDaisy//src/daisy_patch_sm.h ****             Log::Print(format, va...);
 200:../../libDaisy//src/daisy_patch_sm.h ****         }
 201:../../libDaisy//src/daisy_patch_sm.h **** 
 202:../../libDaisy//src/daisy_patch_sm.h ****         /** Print formatted debug log message with automatic line termination
 203:../../libDaisy//src/daisy_patch_sm.h ****          */
 204:../../libDaisy//src/daisy_patch_sm.h ****         template <typename... VA>
 205:../../libDaisy//src/daisy_patch_sm.h ****         static void PrintLine(const char* format, VA... va)
 243              		.loc 2 205 21 is_stmt 1 view .LVU38
 244              	.LBB608:
 206:../../libDaisy//src/daisy_patch_sm.h ****         {
 207:../../libDaisy//src/daisy_patch_sm.h ****             Log::PrintLine(format, va...);
 245              		.loc 2 207 27 is_stmt 0 view .LVU39
 246 0006 0548     		ldr	r0, .L10+8
 247              	.LVL7:
 248              		.loc 2 207 27 view .LVU40
 249 0008 0029     		cmp	r1, #0
 250 000a 14BF     		ite	ne
 251 000c 1146     		movne	r1, r2
 252 000e 1946     		moveq	r1, r3
 253              	.LVL8:
 254              		.loc 2 207 27 view .LVU41
 255 0010 FFF7FEBF 		b	_ZN5daisy6LoggerILNS_17LoggerDestinationE1EE9PrintLineEPKcz
 256              	.LVL9:
 257              	.L11:
 258              		.loc 2 207 27 view .LVU42
 259              		.align	2
 260              	.L10:
 261 0014 00000000 		.word	.LC4
 262 0018 04000000 		.word	.LC5
 263 001c 08000000 		.word	.LC6
 264              	.LBE608:
 265              	.LBE607:
 266              		.cfi_endproc
 267              	.LFE5242:
 269              		.section	.rodata._Z15OnButtonPressedv.str1.4,"aMS",%progbits,1
 270              		.align	2
 271              	.LC7:
 272 0000 53776974 		.ascii	"Switched to effect: %d\012\000"
 272      63686564 
 272      20746F20 
 272      65666665 
 272      63743A20 
 273              		.section	.text._Z15OnButtonPressedv,"ax",%progbits
 274              		.align	1
 275              		.p2align 2,,3
ARM GAS  /var/folders/tn/k4r6j7b53kv6zg3nk3m4krpm0000gp/T//cce5pTHt.s 			page 21


 276              		.global	_Z15OnButtonPressedv
 277              		.syntax unified
 278              		.thumb
 279              		.thumb_func
 281              	_Z15OnButtonPressedv:
 282              	.LFB5243:
  88:DigitalHeat.cpp **** 
  89:DigitalHeat.cpp **** }
  90:DigitalHeat.cpp **** 
  91:DigitalHeat.cpp **** void OnButtonPressed() {
 283              		.loc 15 91 24 is_stmt 1 view -0
 284              		.cfi_startproc
 285              		@ args = 0, pretend = 0, frame = 0
 286              		@ frame_needed = 0, uses_anonymous_args = 0
  92:DigitalHeat.cpp **** 	// Advance to next effect, wrap back to 0 when needed
  93:DigitalHeat.cpp **** 	hw.PrintLine("Switched to effect: %d\n", currentEffect);
 287              		.loc 15 93 2 view .LVU44
 288              	.LVL10:
 289              	.LBB609:
 290              	.LBI609:
 205:../../libDaisy//src/daisy_patch_sm.h ****         {
 291              		.loc 2 205 21 view .LVU45
 292              	.LBE609:
  91:DigitalHeat.cpp **** 	// Advance to next effect, wrap back to 0 when needed
 293              		.loc 15 91 24 is_stmt 0 view .LVU46
 294 0000 10B5     		push	{r4, lr}
 295              		.cfi_def_cfa_offset 8
 296              		.cfi_offset 4, -8
 297              		.cfi_offset 14, -4
 298              		.loc 15 93 14 view .LVU47
 299 0002 084C     		ldr	r4, .L14
 300              	.LBB611:
 301              	.LBB610:
 302              		.loc 2 207 27 view .LVU48
 303 0004 0848     		ldr	r0, .L14+4
 304 0006 2178     		ldrb	r1, [r4]	@ zero_extendqisi2
 305 0008 FFF7FEFF 		bl	_ZN5daisy6LoggerILNS_17LoggerDestinationE1EE9PrintLineEPKcz
 306              	.LVL11:
 307              		.loc 2 207 27 view .LVU49
 308              	.LBE610:
 309              	.LBE611:
  94:DigitalHeat.cpp **** 	currentEffect = static_cast<EffectType>((currentEffect + 1) % EFFECT_COUNT);
 310              		.loc 15 94 2 is_stmt 1 view .LVU50
 311              		.loc 15 94 43 is_stmt 0 view .LVU51
 312 000c 2378     		ldrb	r3, [r4]	@ zero_extendqisi2
 313              		.loc 15 94 62 view .LVU52
 314 000e 074A     		ldr	r2, .L14+8
 315              		.loc 15 94 57 view .LVU53
 316 0010 0133     		adds	r3, r3, #1
 317              		.loc 15 94 62 view .LVU54
 318 0012 A2FB0312 		umull	r1, r2, r2, r3
 319 0016 02F4FF71 		and	r1, r2, #510
 320 001a 01EB5202 		add	r2, r1, r2, lsr #1
 321 001e 9B1A     		subs	r3, r3, r2
 322              		.loc 15 94 18 view .LVU55
 323 0020 2370     		strb	r3, [r4]
  95:DigitalHeat.cpp **** }
ARM GAS  /var/folders/tn/k4r6j7b53kv6zg3nk3m4krpm0000gp/T//cce5pTHt.s 			page 22


 324              		.loc 15 95 1 view .LVU56
 325 0022 10BD     		pop	{r4, pc}
 326              	.L15:
 327              		.align	2
 328              	.L14:
 329 0024 00000000 		.word	.LANCHOR0
 330 0028 00000000 		.word	.LC7
 331 002c ABAAAAAA 		.word	-1431655765
 332              		.cfi_endproc
 333              	.LFE5243:
 335              		.section	.text._ZN13sudwalfulkaan22LinkwitzRileyCrossover18UpdateCoefficientsEv,"ax",%progbits
 336              		.align	1
 337              		.p2align 2,,3
 338              		.global	_ZN13sudwalfulkaan22LinkwitzRileyCrossover18UpdateCoefficientsEv
 339              		.syntax unified
 340              		.thumb
 341              		.thumb_func
 343              	_ZN13sudwalfulkaan22LinkwitzRileyCrossover18UpdateCoefficientsEv:
 344              	.LVL12:
 345              	.LFB4853:
 346              		.file 16 "library/effects/LinkwitzRileyCrossover.cpp"
   1:library/effects/LinkwitzRileyCrossover.cpp **** #include "LinkwitzRileyCrossover.h"
   2:library/effects/LinkwitzRileyCrossover.cpp **** #ifndef M_PI
   3:library/effects/LinkwitzRileyCrossover.cpp **** #define M_PI 3.14159265358979323846 /* pi */
   4:library/effects/LinkwitzRileyCrossover.cpp **** #endif
   5:library/effects/LinkwitzRileyCrossover.cpp **** 
   6:library/effects/LinkwitzRileyCrossover.cpp **** #include <cmath>
   7:library/effects/LinkwitzRileyCrossover.cpp **** #include <algorithm>
   8:library/effects/LinkwitzRileyCrossover.cpp **** 
   9:library/effects/LinkwitzRileyCrossover.cpp **** using namespace sudwalfulkaan;
  10:library/effects/LinkwitzRileyCrossover.cpp **** 
  11:library/effects/LinkwitzRileyCrossover.cpp **** void LinkwitzRileyCrossover::Init(float cutoff, float sampleRate) {
  12:library/effects/LinkwitzRileyCrossover.cpp ****     sampleRate_ = sampleRate;
  13:library/effects/LinkwitzRileyCrossover.cpp ****     SetCutoff(cutoff);
  14:library/effects/LinkwitzRileyCrossover.cpp ****     lowPrev1_ = lowPrev2_ = highPrev1_ = highPrev2_ = 0.0f;
  15:library/effects/LinkwitzRileyCrossover.cpp **** }
  16:library/effects/LinkwitzRileyCrossover.cpp **** 
  17:library/effects/LinkwitzRileyCrossover.cpp **** void LinkwitzRileyCrossover::SetCutoff(float cutoff) {
  18:library/effects/LinkwitzRileyCrossover.cpp ****     cutoff_ = cutoff;
  19:library/effects/LinkwitzRileyCrossover.cpp ****     UpdateCoefficients();
  20:library/effects/LinkwitzRileyCrossover.cpp **** }
  21:library/effects/LinkwitzRileyCrossover.cpp **** 
  22:library/effects/LinkwitzRileyCrossover.cpp **** void LinkwitzRileyCrossover::UpdateCoefficients() {
 347              		.loc 16 22 51 is_stmt 1 view -0
 348              		.cfi_startproc
 349              		@ args = 0, pretend = 0, frame = 0
 350              		@ frame_needed = 0, uses_anonymous_args = 0
  23:library/effects/LinkwitzRileyCrossover.cpp ****     float w0 = 2.0f * M_PI * cutoff_ / sampleRate_;
 351              		.loc 16 23 5 view .LVU58
 352              		.loc 16 23 30 is_stmt 0 view .LVU59
 353 0000 90ED007A 		vldr.32	s14, [r0]
 354              		.loc 16 23 40 view .LVU60
 355 0004 90ED016A 		vldr.32	s12, [r0, #4]
 356              		.loc 16 23 30 view .LVU61
 357 0008 B7EEC77A 		vcvt.f64.f32	d7, s14
 358              		.loc 16 23 40 view .LVU62
 359 000c B7EEC66A 		vcvt.f64.f32	d6, s12
ARM GAS  /var/folders/tn/k4r6j7b53kv6zg3nk3m4krpm0000gp/T//cce5pTHt.s 			page 23


 360              		.loc 16 23 28 view .LVU63
 361 0010 9FED215B 		vldr.64	d5, .L18
  22:library/effects/LinkwitzRileyCrossover.cpp ****     float w0 = 2.0f * M_PI * cutoff_ / sampleRate_;
 362              		.loc 16 22 51 view .LVU64
 363 0014 10B5     		push	{r4, lr}
 364              		.cfi_def_cfa_offset 8
 365              		.cfi_offset 4, -8
 366              		.cfi_offset 14, -4
 367              		.loc 16 23 28 view .LVU65
 368 0016 27EE057B 		vmul.f64	d7, d7, d5
  22:library/effects/LinkwitzRileyCrossover.cpp ****     float w0 = 2.0f * M_PI * cutoff_ / sampleRate_;
 369              		.loc 16 22 51 view .LVU66
 370 001a 0446     		mov	r4, r0
 371 001c 2DED028B 		vpush.64	{d8}
 372              		.cfi_def_cfa_offset 16
 373              		.cfi_offset 80, -16
 374              		.cfi_offset 81, -12
 375              		.loc 16 23 38 view .LVU67
 376 0020 87EE060B 		vdiv.f64	d0, d7, d6
 377              		.loc 16 23 11 view .LVU68
 378 0024 F7EEC08B 		vcvt.f32.f64	s17, d0
 379              	.LVL13:
  24:library/effects/LinkwitzRileyCrossover.cpp ****     float cosW0 = std::cos(w0);
 380              		.loc 16 24 5 is_stmt 1 view .LVU69
 381              	.LBB612:
 382              	.LBI612:
 383              		.file 17 "/Library/DaisyToolchain/0.2.0/arm/arm-none-eabi/include/c++/10.3.1/cmath"
   1:/Library/DaisyToolchain/0.2.0/arm/arm-none-eabi/include/c++/10.3.1/cmath **** // -*- C++ -*- C forwarding header.
   2:/Library/DaisyToolchain/0.2.0/arm/arm-none-eabi/include/c++/10.3.1/cmath **** 
   3:/Library/DaisyToolchain/0.2.0/arm/arm-none-eabi/include/c++/10.3.1/cmath **** // Copyright (C) 1997-2020 Free Software Foundation, Inc.
   4:/Library/DaisyToolchain/0.2.0/arm/arm-none-eabi/include/c++/10.3.1/cmath **** //
   5:/Library/DaisyToolchain/0.2.0/arm/arm-none-eabi/include/c++/10.3.1/cmath **** // This file is part of the GNU ISO C++ Library.  This library is free
   6:/Library/DaisyToolchain/0.2.0/arm/arm-none-eabi/include/c++/10.3.1/cmath **** // software; you can redistribute it and/or modify it under the
   7:/Library/DaisyToolchain/0.2.0/arm/arm-none-eabi/include/c++/10.3.1/cmath **** // terms of the GNU General Public License as published by the
   8:/Library/DaisyToolchain/0.2.0/arm/arm-none-eabi/include/c++/10.3.1/cmath **** // Free Software Foundation; either version 3, or (at your option)
   9:/Library/DaisyToolchain/0.2.0/arm/arm-none-eabi/include/c++/10.3.1/cmath **** // any later version.
  10:/Library/DaisyToolchain/0.2.0/arm/arm-none-eabi/include/c++/10.3.1/cmath **** 
  11:/Library/DaisyToolchain/0.2.0/arm/arm-none-eabi/include/c++/10.3.1/cmath **** // This library is distributed in the hope that it will be useful,
  12:/Library/DaisyToolchain/0.2.0/arm/arm-none-eabi/include/c++/10.3.1/cmath **** // but WITHOUT ANY WARRANTY; without even the implied warranty of
  13:/Library/DaisyToolchain/0.2.0/arm/arm-none-eabi/include/c++/10.3.1/cmath **** // MERCHANTABILITY or FITNESS FOR A PARTICULAR PURPOSE.  See the
  14:/Library/DaisyToolchain/0.2.0/arm/arm-none-eabi/include/c++/10.3.1/cmath **** // GNU General Public License for more details.
  15:/Library/DaisyToolchain/0.2.0/arm/arm-none-eabi/include/c++/10.3.1/cmath **** 
  16:/Library/DaisyToolchain/0.2.0/arm/arm-none-eabi/include/c++/10.3.1/cmath **** // Under Section 7 of GPL version 3, you are granted additional
  17:/Library/DaisyToolchain/0.2.0/arm/arm-none-eabi/include/c++/10.3.1/cmath **** // permissions described in the GCC Runtime Library Exception, version
  18:/Library/DaisyToolchain/0.2.0/arm/arm-none-eabi/include/c++/10.3.1/cmath **** // 3.1, as published by the Free Software Foundation.
  19:/Library/DaisyToolchain/0.2.0/arm/arm-none-eabi/include/c++/10.3.1/cmath **** 
  20:/Library/DaisyToolchain/0.2.0/arm/arm-none-eabi/include/c++/10.3.1/cmath **** // You should have received a copy of the GNU General Public License and
  21:/Library/DaisyToolchain/0.2.0/arm/arm-none-eabi/include/c++/10.3.1/cmath **** // a copy of the GCC Runtime Library Exception along with this program;
  22:/Library/DaisyToolchain/0.2.0/arm/arm-none-eabi/include/c++/10.3.1/cmath **** // see the files COPYING3 and COPYING.RUNTIME respectively.  If not, see
  23:/Library/DaisyToolchain/0.2.0/arm/arm-none-eabi/include/c++/10.3.1/cmath **** // <http://www.gnu.org/licenses/>.
  24:/Library/DaisyToolchain/0.2.0/arm/arm-none-eabi/include/c++/10.3.1/cmath **** 
  25:/Library/DaisyToolchain/0.2.0/arm/arm-none-eabi/include/c++/10.3.1/cmath **** /** @file include/cmath
  26:/Library/DaisyToolchain/0.2.0/arm/arm-none-eabi/include/c++/10.3.1/cmath ****  *  This is a Standard C++ Library file.  You should @c \#include this file
  27:/Library/DaisyToolchain/0.2.0/arm/arm-none-eabi/include/c++/10.3.1/cmath ****  *  in your programs, rather than any of the @a *.h implementation files.
  28:/Library/DaisyToolchain/0.2.0/arm/arm-none-eabi/include/c++/10.3.1/cmath ****  *
  29:/Library/DaisyToolchain/0.2.0/arm/arm-none-eabi/include/c++/10.3.1/cmath ****  *  This is the C++ version of the Standard C Library header @c math.h,
  30:/Library/DaisyToolchain/0.2.0/arm/arm-none-eabi/include/c++/10.3.1/cmath ****  *  and its contents are (mostly) the same as that header, but are all
ARM GAS  /var/folders/tn/k4r6j7b53kv6zg3nk3m4krpm0000gp/T//cce5pTHt.s 			page 24


  31:/Library/DaisyToolchain/0.2.0/arm/arm-none-eabi/include/c++/10.3.1/cmath ****  *  contained in the namespace @c std (except for names which are defined
  32:/Library/DaisyToolchain/0.2.0/arm/arm-none-eabi/include/c++/10.3.1/cmath ****  *  as macros in C).
  33:/Library/DaisyToolchain/0.2.0/arm/arm-none-eabi/include/c++/10.3.1/cmath ****  */
  34:/Library/DaisyToolchain/0.2.0/arm/arm-none-eabi/include/c++/10.3.1/cmath **** 
  35:/Library/DaisyToolchain/0.2.0/arm/arm-none-eabi/include/c++/10.3.1/cmath **** //
  36:/Library/DaisyToolchain/0.2.0/arm/arm-none-eabi/include/c++/10.3.1/cmath **** // ISO C++ 14882: 26.5  C library
  37:/Library/DaisyToolchain/0.2.0/arm/arm-none-eabi/include/c++/10.3.1/cmath **** //
  38:/Library/DaisyToolchain/0.2.0/arm/arm-none-eabi/include/c++/10.3.1/cmath **** 
  39:/Library/DaisyToolchain/0.2.0/arm/arm-none-eabi/include/c++/10.3.1/cmath **** #pragma GCC system_header
  40:/Library/DaisyToolchain/0.2.0/arm/arm-none-eabi/include/c++/10.3.1/cmath **** 
  41:/Library/DaisyToolchain/0.2.0/arm/arm-none-eabi/include/c++/10.3.1/cmath **** #include <bits/c++config.h>
  42:/Library/DaisyToolchain/0.2.0/arm/arm-none-eabi/include/c++/10.3.1/cmath **** #include <bits/cpp_type_traits.h>
  43:/Library/DaisyToolchain/0.2.0/arm/arm-none-eabi/include/c++/10.3.1/cmath **** #include <ext/type_traits.h>
  44:/Library/DaisyToolchain/0.2.0/arm/arm-none-eabi/include/c++/10.3.1/cmath **** #define _GLIBCXX_INCLUDE_NEXT_C_HEADERS
  45:/Library/DaisyToolchain/0.2.0/arm/arm-none-eabi/include/c++/10.3.1/cmath **** #include_next <math.h>
  46:/Library/DaisyToolchain/0.2.0/arm/arm-none-eabi/include/c++/10.3.1/cmath **** #undef _GLIBCXX_INCLUDE_NEXT_C_HEADERS
  47:/Library/DaisyToolchain/0.2.0/arm/arm-none-eabi/include/c++/10.3.1/cmath **** #include <bits/std_abs.h>
  48:/Library/DaisyToolchain/0.2.0/arm/arm-none-eabi/include/c++/10.3.1/cmath **** 
  49:/Library/DaisyToolchain/0.2.0/arm/arm-none-eabi/include/c++/10.3.1/cmath **** #ifndef _GLIBCXX_CMATH
  50:/Library/DaisyToolchain/0.2.0/arm/arm-none-eabi/include/c++/10.3.1/cmath **** #define _GLIBCXX_CMATH 1
  51:/Library/DaisyToolchain/0.2.0/arm/arm-none-eabi/include/c++/10.3.1/cmath **** 
  52:/Library/DaisyToolchain/0.2.0/arm/arm-none-eabi/include/c++/10.3.1/cmath **** // Get rid of those macros defined in <math.h> in lieu of real functions.
  53:/Library/DaisyToolchain/0.2.0/arm/arm-none-eabi/include/c++/10.3.1/cmath **** #undef div
  54:/Library/DaisyToolchain/0.2.0/arm/arm-none-eabi/include/c++/10.3.1/cmath **** #undef acos
  55:/Library/DaisyToolchain/0.2.0/arm/arm-none-eabi/include/c++/10.3.1/cmath **** #undef asin
  56:/Library/DaisyToolchain/0.2.0/arm/arm-none-eabi/include/c++/10.3.1/cmath **** #undef atan
  57:/Library/DaisyToolchain/0.2.0/arm/arm-none-eabi/include/c++/10.3.1/cmath **** #undef atan2
  58:/Library/DaisyToolchain/0.2.0/arm/arm-none-eabi/include/c++/10.3.1/cmath **** #undef ceil
  59:/Library/DaisyToolchain/0.2.0/arm/arm-none-eabi/include/c++/10.3.1/cmath **** #undef cos
  60:/Library/DaisyToolchain/0.2.0/arm/arm-none-eabi/include/c++/10.3.1/cmath **** #undef cosh
  61:/Library/DaisyToolchain/0.2.0/arm/arm-none-eabi/include/c++/10.3.1/cmath **** #undef exp
  62:/Library/DaisyToolchain/0.2.0/arm/arm-none-eabi/include/c++/10.3.1/cmath **** #undef fabs
  63:/Library/DaisyToolchain/0.2.0/arm/arm-none-eabi/include/c++/10.3.1/cmath **** #undef floor
  64:/Library/DaisyToolchain/0.2.0/arm/arm-none-eabi/include/c++/10.3.1/cmath **** #undef fmod
  65:/Library/DaisyToolchain/0.2.0/arm/arm-none-eabi/include/c++/10.3.1/cmath **** #undef frexp
  66:/Library/DaisyToolchain/0.2.0/arm/arm-none-eabi/include/c++/10.3.1/cmath **** #undef ldexp
  67:/Library/DaisyToolchain/0.2.0/arm/arm-none-eabi/include/c++/10.3.1/cmath **** #undef log
  68:/Library/DaisyToolchain/0.2.0/arm/arm-none-eabi/include/c++/10.3.1/cmath **** #undef log10
  69:/Library/DaisyToolchain/0.2.0/arm/arm-none-eabi/include/c++/10.3.1/cmath **** #undef modf
  70:/Library/DaisyToolchain/0.2.0/arm/arm-none-eabi/include/c++/10.3.1/cmath **** #undef pow
  71:/Library/DaisyToolchain/0.2.0/arm/arm-none-eabi/include/c++/10.3.1/cmath **** #undef sin
  72:/Library/DaisyToolchain/0.2.0/arm/arm-none-eabi/include/c++/10.3.1/cmath **** #undef sinh
  73:/Library/DaisyToolchain/0.2.0/arm/arm-none-eabi/include/c++/10.3.1/cmath **** #undef sqrt
  74:/Library/DaisyToolchain/0.2.0/arm/arm-none-eabi/include/c++/10.3.1/cmath **** #undef tan
  75:/Library/DaisyToolchain/0.2.0/arm/arm-none-eabi/include/c++/10.3.1/cmath **** #undef tanh
  76:/Library/DaisyToolchain/0.2.0/arm/arm-none-eabi/include/c++/10.3.1/cmath **** 
  77:/Library/DaisyToolchain/0.2.0/arm/arm-none-eabi/include/c++/10.3.1/cmath **** extern "C++"
  78:/Library/DaisyToolchain/0.2.0/arm/arm-none-eabi/include/c++/10.3.1/cmath **** {
  79:/Library/DaisyToolchain/0.2.0/arm/arm-none-eabi/include/c++/10.3.1/cmath **** namespace std _GLIBCXX_VISIBILITY(default)
  80:/Library/DaisyToolchain/0.2.0/arm/arm-none-eabi/include/c++/10.3.1/cmath **** {
  81:/Library/DaisyToolchain/0.2.0/arm/arm-none-eabi/include/c++/10.3.1/cmath **** _GLIBCXX_BEGIN_NAMESPACE_VERSION
  82:/Library/DaisyToolchain/0.2.0/arm/arm-none-eabi/include/c++/10.3.1/cmath **** 
  83:/Library/DaisyToolchain/0.2.0/arm/arm-none-eabi/include/c++/10.3.1/cmath ****   using ::acos;
  84:/Library/DaisyToolchain/0.2.0/arm/arm-none-eabi/include/c++/10.3.1/cmath **** 
  85:/Library/DaisyToolchain/0.2.0/arm/arm-none-eabi/include/c++/10.3.1/cmath **** #ifndef __CORRECT_ISO_CPP_MATH_H_PROTO
  86:/Library/DaisyToolchain/0.2.0/arm/arm-none-eabi/include/c++/10.3.1/cmath ****   inline _GLIBCXX_CONSTEXPR float
  87:/Library/DaisyToolchain/0.2.0/arm/arm-none-eabi/include/c++/10.3.1/cmath ****   acos(float __x)
ARM GAS  /var/folders/tn/k4r6j7b53kv6zg3nk3m4krpm0000gp/T//cce5pTHt.s 			page 25


  88:/Library/DaisyToolchain/0.2.0/arm/arm-none-eabi/include/c++/10.3.1/cmath ****   { return __builtin_acosf(__x); }
  89:/Library/DaisyToolchain/0.2.0/arm/arm-none-eabi/include/c++/10.3.1/cmath **** 
  90:/Library/DaisyToolchain/0.2.0/arm/arm-none-eabi/include/c++/10.3.1/cmath ****   inline _GLIBCXX_CONSTEXPR long double
  91:/Library/DaisyToolchain/0.2.0/arm/arm-none-eabi/include/c++/10.3.1/cmath ****   acos(long double __x)
  92:/Library/DaisyToolchain/0.2.0/arm/arm-none-eabi/include/c++/10.3.1/cmath ****   { return __builtin_acosl(__x); }
  93:/Library/DaisyToolchain/0.2.0/arm/arm-none-eabi/include/c++/10.3.1/cmath **** #endif
  94:/Library/DaisyToolchain/0.2.0/arm/arm-none-eabi/include/c++/10.3.1/cmath **** 
  95:/Library/DaisyToolchain/0.2.0/arm/arm-none-eabi/include/c++/10.3.1/cmath ****   template<typename _Tp>
  96:/Library/DaisyToolchain/0.2.0/arm/arm-none-eabi/include/c++/10.3.1/cmath ****     inline _GLIBCXX_CONSTEXPR
  97:/Library/DaisyToolchain/0.2.0/arm/arm-none-eabi/include/c++/10.3.1/cmath ****     typename __gnu_cxx::__enable_if<__is_integer<_Tp>::__value, 
  98:/Library/DaisyToolchain/0.2.0/arm/arm-none-eabi/include/c++/10.3.1/cmath ****                                     double>::__type
  99:/Library/DaisyToolchain/0.2.0/arm/arm-none-eabi/include/c++/10.3.1/cmath ****     acos(_Tp __x)
 100:/Library/DaisyToolchain/0.2.0/arm/arm-none-eabi/include/c++/10.3.1/cmath ****     { return __builtin_acos(__x); }
 101:/Library/DaisyToolchain/0.2.0/arm/arm-none-eabi/include/c++/10.3.1/cmath **** 
 102:/Library/DaisyToolchain/0.2.0/arm/arm-none-eabi/include/c++/10.3.1/cmath ****   using ::asin;
 103:/Library/DaisyToolchain/0.2.0/arm/arm-none-eabi/include/c++/10.3.1/cmath **** 
 104:/Library/DaisyToolchain/0.2.0/arm/arm-none-eabi/include/c++/10.3.1/cmath **** #ifndef __CORRECT_ISO_CPP_MATH_H_PROTO
 105:/Library/DaisyToolchain/0.2.0/arm/arm-none-eabi/include/c++/10.3.1/cmath ****   inline _GLIBCXX_CONSTEXPR float
 106:/Library/DaisyToolchain/0.2.0/arm/arm-none-eabi/include/c++/10.3.1/cmath ****   asin(float __x)
 107:/Library/DaisyToolchain/0.2.0/arm/arm-none-eabi/include/c++/10.3.1/cmath ****   { return __builtin_asinf(__x); }
 108:/Library/DaisyToolchain/0.2.0/arm/arm-none-eabi/include/c++/10.3.1/cmath **** 
 109:/Library/DaisyToolchain/0.2.0/arm/arm-none-eabi/include/c++/10.3.1/cmath ****   inline _GLIBCXX_CONSTEXPR long double
 110:/Library/DaisyToolchain/0.2.0/arm/arm-none-eabi/include/c++/10.3.1/cmath ****   asin(long double __x)
 111:/Library/DaisyToolchain/0.2.0/arm/arm-none-eabi/include/c++/10.3.1/cmath ****   { return __builtin_asinl(__x); }
 112:/Library/DaisyToolchain/0.2.0/arm/arm-none-eabi/include/c++/10.3.1/cmath **** #endif
 113:/Library/DaisyToolchain/0.2.0/arm/arm-none-eabi/include/c++/10.3.1/cmath **** 
 114:/Library/DaisyToolchain/0.2.0/arm/arm-none-eabi/include/c++/10.3.1/cmath ****   template<typename _Tp>
 115:/Library/DaisyToolchain/0.2.0/arm/arm-none-eabi/include/c++/10.3.1/cmath ****     inline _GLIBCXX_CONSTEXPR
 116:/Library/DaisyToolchain/0.2.0/arm/arm-none-eabi/include/c++/10.3.1/cmath ****     typename __gnu_cxx::__enable_if<__is_integer<_Tp>::__value,
 117:/Library/DaisyToolchain/0.2.0/arm/arm-none-eabi/include/c++/10.3.1/cmath ****                                     double>::__type
 118:/Library/DaisyToolchain/0.2.0/arm/arm-none-eabi/include/c++/10.3.1/cmath ****     asin(_Tp __x)
 119:/Library/DaisyToolchain/0.2.0/arm/arm-none-eabi/include/c++/10.3.1/cmath ****     { return __builtin_asin(__x); }
 120:/Library/DaisyToolchain/0.2.0/arm/arm-none-eabi/include/c++/10.3.1/cmath **** 
 121:/Library/DaisyToolchain/0.2.0/arm/arm-none-eabi/include/c++/10.3.1/cmath ****   using ::atan;
 122:/Library/DaisyToolchain/0.2.0/arm/arm-none-eabi/include/c++/10.3.1/cmath **** 
 123:/Library/DaisyToolchain/0.2.0/arm/arm-none-eabi/include/c++/10.3.1/cmath **** #ifndef __CORRECT_ISO_CPP_MATH_H_PROTO
 124:/Library/DaisyToolchain/0.2.0/arm/arm-none-eabi/include/c++/10.3.1/cmath ****   inline _GLIBCXX_CONSTEXPR float
 125:/Library/DaisyToolchain/0.2.0/arm/arm-none-eabi/include/c++/10.3.1/cmath ****   atan(float __x)
 126:/Library/DaisyToolchain/0.2.0/arm/arm-none-eabi/include/c++/10.3.1/cmath ****   { return __builtin_atanf(__x); }
 127:/Library/DaisyToolchain/0.2.0/arm/arm-none-eabi/include/c++/10.3.1/cmath **** 
 128:/Library/DaisyToolchain/0.2.0/arm/arm-none-eabi/include/c++/10.3.1/cmath ****   inline _GLIBCXX_CONSTEXPR long double
 129:/Library/DaisyToolchain/0.2.0/arm/arm-none-eabi/include/c++/10.3.1/cmath ****   atan(long double __x)
 130:/Library/DaisyToolchain/0.2.0/arm/arm-none-eabi/include/c++/10.3.1/cmath ****   { return __builtin_atanl(__x); }
 131:/Library/DaisyToolchain/0.2.0/arm/arm-none-eabi/include/c++/10.3.1/cmath **** #endif
 132:/Library/DaisyToolchain/0.2.0/arm/arm-none-eabi/include/c++/10.3.1/cmath **** 
 133:/Library/DaisyToolchain/0.2.0/arm/arm-none-eabi/include/c++/10.3.1/cmath ****   template<typename _Tp>
 134:/Library/DaisyToolchain/0.2.0/arm/arm-none-eabi/include/c++/10.3.1/cmath ****     inline _GLIBCXX_CONSTEXPR
 135:/Library/DaisyToolchain/0.2.0/arm/arm-none-eabi/include/c++/10.3.1/cmath ****     typename __gnu_cxx::__enable_if<__is_integer<_Tp>::__value,
 136:/Library/DaisyToolchain/0.2.0/arm/arm-none-eabi/include/c++/10.3.1/cmath ****                                     double>::__type
 137:/Library/DaisyToolchain/0.2.0/arm/arm-none-eabi/include/c++/10.3.1/cmath ****     atan(_Tp __x)
 138:/Library/DaisyToolchain/0.2.0/arm/arm-none-eabi/include/c++/10.3.1/cmath ****     { return __builtin_atan(__x); }
 139:/Library/DaisyToolchain/0.2.0/arm/arm-none-eabi/include/c++/10.3.1/cmath **** 
 140:/Library/DaisyToolchain/0.2.0/arm/arm-none-eabi/include/c++/10.3.1/cmath ****   using ::atan2;
 141:/Library/DaisyToolchain/0.2.0/arm/arm-none-eabi/include/c++/10.3.1/cmath **** 
 142:/Library/DaisyToolchain/0.2.0/arm/arm-none-eabi/include/c++/10.3.1/cmath **** #ifndef __CORRECT_ISO_CPP_MATH_H_PROTO
 143:/Library/DaisyToolchain/0.2.0/arm/arm-none-eabi/include/c++/10.3.1/cmath ****   inline _GLIBCXX_CONSTEXPR float
 144:/Library/DaisyToolchain/0.2.0/arm/arm-none-eabi/include/c++/10.3.1/cmath ****   atan2(float __y, float __x)
ARM GAS  /var/folders/tn/k4r6j7b53kv6zg3nk3m4krpm0000gp/T//cce5pTHt.s 			page 26


 145:/Library/DaisyToolchain/0.2.0/arm/arm-none-eabi/include/c++/10.3.1/cmath ****   { return __builtin_atan2f(__y, __x); }
 146:/Library/DaisyToolchain/0.2.0/arm/arm-none-eabi/include/c++/10.3.1/cmath **** 
 147:/Library/DaisyToolchain/0.2.0/arm/arm-none-eabi/include/c++/10.3.1/cmath ****   inline _GLIBCXX_CONSTEXPR long double
 148:/Library/DaisyToolchain/0.2.0/arm/arm-none-eabi/include/c++/10.3.1/cmath ****   atan2(long double __y, long double __x)
 149:/Library/DaisyToolchain/0.2.0/arm/arm-none-eabi/include/c++/10.3.1/cmath ****   { return __builtin_atan2l(__y, __x); }
 150:/Library/DaisyToolchain/0.2.0/arm/arm-none-eabi/include/c++/10.3.1/cmath **** #endif
 151:/Library/DaisyToolchain/0.2.0/arm/arm-none-eabi/include/c++/10.3.1/cmath **** 
 152:/Library/DaisyToolchain/0.2.0/arm/arm-none-eabi/include/c++/10.3.1/cmath ****   template<typename _Tp, typename _Up>
 153:/Library/DaisyToolchain/0.2.0/arm/arm-none-eabi/include/c++/10.3.1/cmath ****     inline _GLIBCXX_CONSTEXPR
 154:/Library/DaisyToolchain/0.2.0/arm/arm-none-eabi/include/c++/10.3.1/cmath ****     typename __gnu_cxx::__promote_2<_Tp, _Up>::__type
 155:/Library/DaisyToolchain/0.2.0/arm/arm-none-eabi/include/c++/10.3.1/cmath ****     atan2(_Tp __y, _Up __x)
 156:/Library/DaisyToolchain/0.2.0/arm/arm-none-eabi/include/c++/10.3.1/cmath ****     {
 157:/Library/DaisyToolchain/0.2.0/arm/arm-none-eabi/include/c++/10.3.1/cmath ****       typedef typename __gnu_cxx::__promote_2<_Tp, _Up>::__type __type;
 158:/Library/DaisyToolchain/0.2.0/arm/arm-none-eabi/include/c++/10.3.1/cmath ****       return atan2(__type(__y), __type(__x));
 159:/Library/DaisyToolchain/0.2.0/arm/arm-none-eabi/include/c++/10.3.1/cmath ****     }
 160:/Library/DaisyToolchain/0.2.0/arm/arm-none-eabi/include/c++/10.3.1/cmath **** 
 161:/Library/DaisyToolchain/0.2.0/arm/arm-none-eabi/include/c++/10.3.1/cmath ****   using ::ceil;
 162:/Library/DaisyToolchain/0.2.0/arm/arm-none-eabi/include/c++/10.3.1/cmath **** 
 163:/Library/DaisyToolchain/0.2.0/arm/arm-none-eabi/include/c++/10.3.1/cmath **** #ifndef __CORRECT_ISO_CPP_MATH_H_PROTO
 164:/Library/DaisyToolchain/0.2.0/arm/arm-none-eabi/include/c++/10.3.1/cmath ****   inline _GLIBCXX_CONSTEXPR float
 165:/Library/DaisyToolchain/0.2.0/arm/arm-none-eabi/include/c++/10.3.1/cmath ****   ceil(float __x)
 166:/Library/DaisyToolchain/0.2.0/arm/arm-none-eabi/include/c++/10.3.1/cmath ****   { return __builtin_ceilf(__x); }
 167:/Library/DaisyToolchain/0.2.0/arm/arm-none-eabi/include/c++/10.3.1/cmath **** 
 168:/Library/DaisyToolchain/0.2.0/arm/arm-none-eabi/include/c++/10.3.1/cmath ****   inline _GLIBCXX_CONSTEXPR long double
 169:/Library/DaisyToolchain/0.2.0/arm/arm-none-eabi/include/c++/10.3.1/cmath ****   ceil(long double __x)
 170:/Library/DaisyToolchain/0.2.0/arm/arm-none-eabi/include/c++/10.3.1/cmath ****   { return __builtin_ceill(__x); }
 171:/Library/DaisyToolchain/0.2.0/arm/arm-none-eabi/include/c++/10.3.1/cmath **** #endif
 172:/Library/DaisyToolchain/0.2.0/arm/arm-none-eabi/include/c++/10.3.1/cmath **** 
 173:/Library/DaisyToolchain/0.2.0/arm/arm-none-eabi/include/c++/10.3.1/cmath ****   template<typename _Tp>
 174:/Library/DaisyToolchain/0.2.0/arm/arm-none-eabi/include/c++/10.3.1/cmath ****     inline _GLIBCXX_CONSTEXPR
 175:/Library/DaisyToolchain/0.2.0/arm/arm-none-eabi/include/c++/10.3.1/cmath ****     typename __gnu_cxx::__enable_if<__is_integer<_Tp>::__value, 
 176:/Library/DaisyToolchain/0.2.0/arm/arm-none-eabi/include/c++/10.3.1/cmath ****                                     double>::__type
 177:/Library/DaisyToolchain/0.2.0/arm/arm-none-eabi/include/c++/10.3.1/cmath ****     ceil(_Tp __x)
 178:/Library/DaisyToolchain/0.2.0/arm/arm-none-eabi/include/c++/10.3.1/cmath ****     { return __builtin_ceil(__x); }
 179:/Library/DaisyToolchain/0.2.0/arm/arm-none-eabi/include/c++/10.3.1/cmath **** 
 180:/Library/DaisyToolchain/0.2.0/arm/arm-none-eabi/include/c++/10.3.1/cmath ****   using ::cos;
 181:/Library/DaisyToolchain/0.2.0/arm/arm-none-eabi/include/c++/10.3.1/cmath **** 
 182:/Library/DaisyToolchain/0.2.0/arm/arm-none-eabi/include/c++/10.3.1/cmath **** #ifndef __CORRECT_ISO_CPP_MATH_H_PROTO
 183:/Library/DaisyToolchain/0.2.0/arm/arm-none-eabi/include/c++/10.3.1/cmath ****   inline _GLIBCXX_CONSTEXPR float
 184:/Library/DaisyToolchain/0.2.0/arm/arm-none-eabi/include/c++/10.3.1/cmath ****   cos(float __x)
 384              		.loc 17 184 3 view .LVU70
 385              	.LBB613:
 185:/Library/DaisyToolchain/0.2.0/arm/arm-none-eabi/include/c++/10.3.1/cmath ****   { return __builtin_cosf(__x); }
 386              		.loc 17 185 5 view .LVU71
 387              		.loc 17 185 26 is_stmt 0 view .LVU72
 388 0028 B0EE680A 		vmov.f32	s0, s17
 389 002c FFF7FEFF 		bl	cosf
 390              	.LVL14:
 391              		.loc 17 185 26 view .LVU73
 392 0030 B0EE408A 		vmov.f32	s16, s0
 393              	.LBE613:
 394              	.LBE612:
 395              	.LBB614:
 396              	.LBB615:
 186:/Library/DaisyToolchain/0.2.0/arm/arm-none-eabi/include/c++/10.3.1/cmath **** 
 187:/Library/DaisyToolchain/0.2.0/arm/arm-none-eabi/include/c++/10.3.1/cmath ****   inline _GLIBCXX_CONSTEXPR long double
 188:/Library/DaisyToolchain/0.2.0/arm/arm-none-eabi/include/c++/10.3.1/cmath ****   cos(long double __x)
ARM GAS  /var/folders/tn/k4r6j7b53kv6zg3nk3m4krpm0000gp/T//cce5pTHt.s 			page 27


 189:/Library/DaisyToolchain/0.2.0/arm/arm-none-eabi/include/c++/10.3.1/cmath ****   { return __builtin_cosl(__x); }
 190:/Library/DaisyToolchain/0.2.0/arm/arm-none-eabi/include/c++/10.3.1/cmath **** #endif
 191:/Library/DaisyToolchain/0.2.0/arm/arm-none-eabi/include/c++/10.3.1/cmath **** 
 192:/Library/DaisyToolchain/0.2.0/arm/arm-none-eabi/include/c++/10.3.1/cmath ****   template<typename _Tp>
 193:/Library/DaisyToolchain/0.2.0/arm/arm-none-eabi/include/c++/10.3.1/cmath ****     inline _GLIBCXX_CONSTEXPR
 194:/Library/DaisyToolchain/0.2.0/arm/arm-none-eabi/include/c++/10.3.1/cmath ****     typename __gnu_cxx::__enable_if<__is_integer<_Tp>::__value,
 195:/Library/DaisyToolchain/0.2.0/arm/arm-none-eabi/include/c++/10.3.1/cmath ****                                     double>::__type
 196:/Library/DaisyToolchain/0.2.0/arm/arm-none-eabi/include/c++/10.3.1/cmath ****     cos(_Tp __x)
 197:/Library/DaisyToolchain/0.2.0/arm/arm-none-eabi/include/c++/10.3.1/cmath ****     { return __builtin_cos(__x); }
 198:/Library/DaisyToolchain/0.2.0/arm/arm-none-eabi/include/c++/10.3.1/cmath **** 
 199:/Library/DaisyToolchain/0.2.0/arm/arm-none-eabi/include/c++/10.3.1/cmath ****   using ::cosh;
 200:/Library/DaisyToolchain/0.2.0/arm/arm-none-eabi/include/c++/10.3.1/cmath **** 
 201:/Library/DaisyToolchain/0.2.0/arm/arm-none-eabi/include/c++/10.3.1/cmath **** #ifndef __CORRECT_ISO_CPP_MATH_H_PROTO
 202:/Library/DaisyToolchain/0.2.0/arm/arm-none-eabi/include/c++/10.3.1/cmath ****   inline _GLIBCXX_CONSTEXPR float
 203:/Library/DaisyToolchain/0.2.0/arm/arm-none-eabi/include/c++/10.3.1/cmath ****   cosh(float __x)
 204:/Library/DaisyToolchain/0.2.0/arm/arm-none-eabi/include/c++/10.3.1/cmath ****   { return __builtin_coshf(__x); }
 205:/Library/DaisyToolchain/0.2.0/arm/arm-none-eabi/include/c++/10.3.1/cmath **** 
 206:/Library/DaisyToolchain/0.2.0/arm/arm-none-eabi/include/c++/10.3.1/cmath ****   inline _GLIBCXX_CONSTEXPR long double
 207:/Library/DaisyToolchain/0.2.0/arm/arm-none-eabi/include/c++/10.3.1/cmath ****   cosh(long double __x)
 208:/Library/DaisyToolchain/0.2.0/arm/arm-none-eabi/include/c++/10.3.1/cmath ****   { return __builtin_coshl(__x); }
 209:/Library/DaisyToolchain/0.2.0/arm/arm-none-eabi/include/c++/10.3.1/cmath **** #endif
 210:/Library/DaisyToolchain/0.2.0/arm/arm-none-eabi/include/c++/10.3.1/cmath **** 
 211:/Library/DaisyToolchain/0.2.0/arm/arm-none-eabi/include/c++/10.3.1/cmath ****   template<typename _Tp>
 212:/Library/DaisyToolchain/0.2.0/arm/arm-none-eabi/include/c++/10.3.1/cmath ****     inline _GLIBCXX_CONSTEXPR
 213:/Library/DaisyToolchain/0.2.0/arm/arm-none-eabi/include/c++/10.3.1/cmath ****     typename __gnu_cxx::__enable_if<__is_integer<_Tp>::__value,
 214:/Library/DaisyToolchain/0.2.0/arm/arm-none-eabi/include/c++/10.3.1/cmath ****                                     double>::__type
 215:/Library/DaisyToolchain/0.2.0/arm/arm-none-eabi/include/c++/10.3.1/cmath ****     cosh(_Tp __x)
 216:/Library/DaisyToolchain/0.2.0/arm/arm-none-eabi/include/c++/10.3.1/cmath ****     { return __builtin_cosh(__x); }
 217:/Library/DaisyToolchain/0.2.0/arm/arm-none-eabi/include/c++/10.3.1/cmath **** 
 218:/Library/DaisyToolchain/0.2.0/arm/arm-none-eabi/include/c++/10.3.1/cmath ****   using ::exp;
 219:/Library/DaisyToolchain/0.2.0/arm/arm-none-eabi/include/c++/10.3.1/cmath **** 
 220:/Library/DaisyToolchain/0.2.0/arm/arm-none-eabi/include/c++/10.3.1/cmath **** #ifndef __CORRECT_ISO_CPP_MATH_H_PROTO
 221:/Library/DaisyToolchain/0.2.0/arm/arm-none-eabi/include/c++/10.3.1/cmath ****   inline _GLIBCXX_CONSTEXPR float
 222:/Library/DaisyToolchain/0.2.0/arm/arm-none-eabi/include/c++/10.3.1/cmath ****   exp(float __x)
 223:/Library/DaisyToolchain/0.2.0/arm/arm-none-eabi/include/c++/10.3.1/cmath ****   { return __builtin_expf(__x); }
 224:/Library/DaisyToolchain/0.2.0/arm/arm-none-eabi/include/c++/10.3.1/cmath **** 
 225:/Library/DaisyToolchain/0.2.0/arm/arm-none-eabi/include/c++/10.3.1/cmath ****   inline _GLIBCXX_CONSTEXPR long double
 226:/Library/DaisyToolchain/0.2.0/arm/arm-none-eabi/include/c++/10.3.1/cmath ****   exp(long double __x)
 227:/Library/DaisyToolchain/0.2.0/arm/arm-none-eabi/include/c++/10.3.1/cmath ****   { return __builtin_expl(__x); }
 228:/Library/DaisyToolchain/0.2.0/arm/arm-none-eabi/include/c++/10.3.1/cmath **** #endif
 229:/Library/DaisyToolchain/0.2.0/arm/arm-none-eabi/include/c++/10.3.1/cmath **** 
 230:/Library/DaisyToolchain/0.2.0/arm/arm-none-eabi/include/c++/10.3.1/cmath ****   template<typename _Tp>
 231:/Library/DaisyToolchain/0.2.0/arm/arm-none-eabi/include/c++/10.3.1/cmath ****     inline _GLIBCXX_CONSTEXPR
 232:/Library/DaisyToolchain/0.2.0/arm/arm-none-eabi/include/c++/10.3.1/cmath ****     typename __gnu_cxx::__enable_if<__is_integer<_Tp>::__value,
 233:/Library/DaisyToolchain/0.2.0/arm/arm-none-eabi/include/c++/10.3.1/cmath ****                                     double>::__type
 234:/Library/DaisyToolchain/0.2.0/arm/arm-none-eabi/include/c++/10.3.1/cmath ****     exp(_Tp __x)
 235:/Library/DaisyToolchain/0.2.0/arm/arm-none-eabi/include/c++/10.3.1/cmath ****     { return __builtin_exp(__x); }
 236:/Library/DaisyToolchain/0.2.0/arm/arm-none-eabi/include/c++/10.3.1/cmath **** 
 237:/Library/DaisyToolchain/0.2.0/arm/arm-none-eabi/include/c++/10.3.1/cmath ****   using ::fabs;
 238:/Library/DaisyToolchain/0.2.0/arm/arm-none-eabi/include/c++/10.3.1/cmath **** 
 239:/Library/DaisyToolchain/0.2.0/arm/arm-none-eabi/include/c++/10.3.1/cmath **** #ifndef __CORRECT_ISO_CPP_MATH_H_PROTO
 240:/Library/DaisyToolchain/0.2.0/arm/arm-none-eabi/include/c++/10.3.1/cmath ****   inline _GLIBCXX_CONSTEXPR float
 241:/Library/DaisyToolchain/0.2.0/arm/arm-none-eabi/include/c++/10.3.1/cmath ****   fabs(float __x)
 242:/Library/DaisyToolchain/0.2.0/arm/arm-none-eabi/include/c++/10.3.1/cmath ****   { return __builtin_fabsf(__x); }
 243:/Library/DaisyToolchain/0.2.0/arm/arm-none-eabi/include/c++/10.3.1/cmath **** 
 244:/Library/DaisyToolchain/0.2.0/arm/arm-none-eabi/include/c++/10.3.1/cmath ****   inline _GLIBCXX_CONSTEXPR long double
 245:/Library/DaisyToolchain/0.2.0/arm/arm-none-eabi/include/c++/10.3.1/cmath ****   fabs(long double __x)
ARM GAS  /var/folders/tn/k4r6j7b53kv6zg3nk3m4krpm0000gp/T//cce5pTHt.s 			page 28


 246:/Library/DaisyToolchain/0.2.0/arm/arm-none-eabi/include/c++/10.3.1/cmath ****   { return __builtin_fabsl(__x); }
 247:/Library/DaisyToolchain/0.2.0/arm/arm-none-eabi/include/c++/10.3.1/cmath **** #endif
 248:/Library/DaisyToolchain/0.2.0/arm/arm-none-eabi/include/c++/10.3.1/cmath **** 
 249:/Library/DaisyToolchain/0.2.0/arm/arm-none-eabi/include/c++/10.3.1/cmath ****   template<typename _Tp>
 250:/Library/DaisyToolchain/0.2.0/arm/arm-none-eabi/include/c++/10.3.1/cmath ****     inline _GLIBCXX_CONSTEXPR
 251:/Library/DaisyToolchain/0.2.0/arm/arm-none-eabi/include/c++/10.3.1/cmath ****     typename __gnu_cxx::__enable_if<__is_integer<_Tp>::__value,
 252:/Library/DaisyToolchain/0.2.0/arm/arm-none-eabi/include/c++/10.3.1/cmath ****                                     double>::__type
 253:/Library/DaisyToolchain/0.2.0/arm/arm-none-eabi/include/c++/10.3.1/cmath ****     fabs(_Tp __x)
 254:/Library/DaisyToolchain/0.2.0/arm/arm-none-eabi/include/c++/10.3.1/cmath ****     { return __builtin_fabs(__x); }
 255:/Library/DaisyToolchain/0.2.0/arm/arm-none-eabi/include/c++/10.3.1/cmath **** 
 256:/Library/DaisyToolchain/0.2.0/arm/arm-none-eabi/include/c++/10.3.1/cmath ****   using ::floor;
 257:/Library/DaisyToolchain/0.2.0/arm/arm-none-eabi/include/c++/10.3.1/cmath **** 
 258:/Library/DaisyToolchain/0.2.0/arm/arm-none-eabi/include/c++/10.3.1/cmath **** #ifndef __CORRECT_ISO_CPP_MATH_H_PROTO
 259:/Library/DaisyToolchain/0.2.0/arm/arm-none-eabi/include/c++/10.3.1/cmath ****   inline _GLIBCXX_CONSTEXPR float
 260:/Library/DaisyToolchain/0.2.0/arm/arm-none-eabi/include/c++/10.3.1/cmath ****   floor(float __x)
 261:/Library/DaisyToolchain/0.2.0/arm/arm-none-eabi/include/c++/10.3.1/cmath ****   { return __builtin_floorf(__x); }
 262:/Library/DaisyToolchain/0.2.0/arm/arm-none-eabi/include/c++/10.3.1/cmath **** 
 263:/Library/DaisyToolchain/0.2.0/arm/arm-none-eabi/include/c++/10.3.1/cmath ****   inline _GLIBCXX_CONSTEXPR long double
 264:/Library/DaisyToolchain/0.2.0/arm/arm-none-eabi/include/c++/10.3.1/cmath ****   floor(long double __x)
 265:/Library/DaisyToolchain/0.2.0/arm/arm-none-eabi/include/c++/10.3.1/cmath ****   { return __builtin_floorl(__x); }
 266:/Library/DaisyToolchain/0.2.0/arm/arm-none-eabi/include/c++/10.3.1/cmath **** #endif
 267:/Library/DaisyToolchain/0.2.0/arm/arm-none-eabi/include/c++/10.3.1/cmath **** 
 268:/Library/DaisyToolchain/0.2.0/arm/arm-none-eabi/include/c++/10.3.1/cmath ****   template<typename _Tp>
 269:/Library/DaisyToolchain/0.2.0/arm/arm-none-eabi/include/c++/10.3.1/cmath ****     inline _GLIBCXX_CONSTEXPR
 270:/Library/DaisyToolchain/0.2.0/arm/arm-none-eabi/include/c++/10.3.1/cmath ****     typename __gnu_cxx::__enable_if<__is_integer<_Tp>::__value,
 271:/Library/DaisyToolchain/0.2.0/arm/arm-none-eabi/include/c++/10.3.1/cmath ****                                     double>::__type
 272:/Library/DaisyToolchain/0.2.0/arm/arm-none-eabi/include/c++/10.3.1/cmath ****     floor(_Tp __x)
 273:/Library/DaisyToolchain/0.2.0/arm/arm-none-eabi/include/c++/10.3.1/cmath ****     { return __builtin_floor(__x); }
 274:/Library/DaisyToolchain/0.2.0/arm/arm-none-eabi/include/c++/10.3.1/cmath **** 
 275:/Library/DaisyToolchain/0.2.0/arm/arm-none-eabi/include/c++/10.3.1/cmath ****   using ::fmod;
 276:/Library/DaisyToolchain/0.2.0/arm/arm-none-eabi/include/c++/10.3.1/cmath **** 
 277:/Library/DaisyToolchain/0.2.0/arm/arm-none-eabi/include/c++/10.3.1/cmath **** #ifndef __CORRECT_ISO_CPP_MATH_H_PROTO
 278:/Library/DaisyToolchain/0.2.0/arm/arm-none-eabi/include/c++/10.3.1/cmath ****   inline _GLIBCXX_CONSTEXPR float
 279:/Library/DaisyToolchain/0.2.0/arm/arm-none-eabi/include/c++/10.3.1/cmath ****   fmod(float __x, float __y)
 280:/Library/DaisyToolchain/0.2.0/arm/arm-none-eabi/include/c++/10.3.1/cmath ****   { return __builtin_fmodf(__x, __y); }
 281:/Library/DaisyToolchain/0.2.0/arm/arm-none-eabi/include/c++/10.3.1/cmath **** 
 282:/Library/DaisyToolchain/0.2.0/arm/arm-none-eabi/include/c++/10.3.1/cmath ****   inline _GLIBCXX_CONSTEXPR long double
 283:/Library/DaisyToolchain/0.2.0/arm/arm-none-eabi/include/c++/10.3.1/cmath ****   fmod(long double __x, long double __y)
 284:/Library/DaisyToolchain/0.2.0/arm/arm-none-eabi/include/c++/10.3.1/cmath ****   { return __builtin_fmodl(__x, __y); }
 285:/Library/DaisyToolchain/0.2.0/arm/arm-none-eabi/include/c++/10.3.1/cmath **** #endif
 286:/Library/DaisyToolchain/0.2.0/arm/arm-none-eabi/include/c++/10.3.1/cmath **** 
 287:/Library/DaisyToolchain/0.2.0/arm/arm-none-eabi/include/c++/10.3.1/cmath ****   template<typename _Tp, typename _Up>
 288:/Library/DaisyToolchain/0.2.0/arm/arm-none-eabi/include/c++/10.3.1/cmath ****     inline _GLIBCXX_CONSTEXPR
 289:/Library/DaisyToolchain/0.2.0/arm/arm-none-eabi/include/c++/10.3.1/cmath ****     typename __gnu_cxx::__promote_2<_Tp, _Up>::__type
 290:/Library/DaisyToolchain/0.2.0/arm/arm-none-eabi/include/c++/10.3.1/cmath ****     fmod(_Tp __x, _Up __y)
 291:/Library/DaisyToolchain/0.2.0/arm/arm-none-eabi/include/c++/10.3.1/cmath ****     {
 292:/Library/DaisyToolchain/0.2.0/arm/arm-none-eabi/include/c++/10.3.1/cmath ****       typedef typename __gnu_cxx::__promote_2<_Tp, _Up>::__type __type;
 293:/Library/DaisyToolchain/0.2.0/arm/arm-none-eabi/include/c++/10.3.1/cmath ****       return fmod(__type(__x), __type(__y));
 294:/Library/DaisyToolchain/0.2.0/arm/arm-none-eabi/include/c++/10.3.1/cmath ****     }
 295:/Library/DaisyToolchain/0.2.0/arm/arm-none-eabi/include/c++/10.3.1/cmath **** 
 296:/Library/DaisyToolchain/0.2.0/arm/arm-none-eabi/include/c++/10.3.1/cmath ****   using ::frexp;
 297:/Library/DaisyToolchain/0.2.0/arm/arm-none-eabi/include/c++/10.3.1/cmath **** 
 298:/Library/DaisyToolchain/0.2.0/arm/arm-none-eabi/include/c++/10.3.1/cmath **** #ifndef __CORRECT_ISO_CPP_MATH_H_PROTO
 299:/Library/DaisyToolchain/0.2.0/arm/arm-none-eabi/include/c++/10.3.1/cmath ****   inline float
 300:/Library/DaisyToolchain/0.2.0/arm/arm-none-eabi/include/c++/10.3.1/cmath ****   frexp(float __x, int* __exp)
 301:/Library/DaisyToolchain/0.2.0/arm/arm-none-eabi/include/c++/10.3.1/cmath ****   { return __builtin_frexpf(__x, __exp); }
 302:/Library/DaisyToolchain/0.2.0/arm/arm-none-eabi/include/c++/10.3.1/cmath **** 
ARM GAS  /var/folders/tn/k4r6j7b53kv6zg3nk3m4krpm0000gp/T//cce5pTHt.s 			page 29


 303:/Library/DaisyToolchain/0.2.0/arm/arm-none-eabi/include/c++/10.3.1/cmath ****   inline long double
 304:/Library/DaisyToolchain/0.2.0/arm/arm-none-eabi/include/c++/10.3.1/cmath ****   frexp(long double __x, int* __exp)
 305:/Library/DaisyToolchain/0.2.0/arm/arm-none-eabi/include/c++/10.3.1/cmath ****   { return __builtin_frexpl(__x, __exp); }
 306:/Library/DaisyToolchain/0.2.0/arm/arm-none-eabi/include/c++/10.3.1/cmath **** #endif
 307:/Library/DaisyToolchain/0.2.0/arm/arm-none-eabi/include/c++/10.3.1/cmath **** 
 308:/Library/DaisyToolchain/0.2.0/arm/arm-none-eabi/include/c++/10.3.1/cmath ****   template<typename _Tp>
 309:/Library/DaisyToolchain/0.2.0/arm/arm-none-eabi/include/c++/10.3.1/cmath ****     inline _GLIBCXX_CONSTEXPR
 310:/Library/DaisyToolchain/0.2.0/arm/arm-none-eabi/include/c++/10.3.1/cmath ****     typename __gnu_cxx::__enable_if<__is_integer<_Tp>::__value, 
 311:/Library/DaisyToolchain/0.2.0/arm/arm-none-eabi/include/c++/10.3.1/cmath ****                                     double>::__type
 312:/Library/DaisyToolchain/0.2.0/arm/arm-none-eabi/include/c++/10.3.1/cmath ****     frexp(_Tp __x, int* __exp)
 313:/Library/DaisyToolchain/0.2.0/arm/arm-none-eabi/include/c++/10.3.1/cmath ****     { return __builtin_frexp(__x, __exp); }
 314:/Library/DaisyToolchain/0.2.0/arm/arm-none-eabi/include/c++/10.3.1/cmath **** 
 315:/Library/DaisyToolchain/0.2.0/arm/arm-none-eabi/include/c++/10.3.1/cmath ****   using ::ldexp;
 316:/Library/DaisyToolchain/0.2.0/arm/arm-none-eabi/include/c++/10.3.1/cmath **** 
 317:/Library/DaisyToolchain/0.2.0/arm/arm-none-eabi/include/c++/10.3.1/cmath **** #ifndef __CORRECT_ISO_CPP_MATH_H_PROTO
 318:/Library/DaisyToolchain/0.2.0/arm/arm-none-eabi/include/c++/10.3.1/cmath ****   inline _GLIBCXX_CONSTEXPR float
 319:/Library/DaisyToolchain/0.2.0/arm/arm-none-eabi/include/c++/10.3.1/cmath ****   ldexp(float __x, int __exp)
 320:/Library/DaisyToolchain/0.2.0/arm/arm-none-eabi/include/c++/10.3.1/cmath ****   { return __builtin_ldexpf(__x, __exp); }
 321:/Library/DaisyToolchain/0.2.0/arm/arm-none-eabi/include/c++/10.3.1/cmath **** 
 322:/Library/DaisyToolchain/0.2.0/arm/arm-none-eabi/include/c++/10.3.1/cmath ****   inline _GLIBCXX_CONSTEXPR long double
 323:/Library/DaisyToolchain/0.2.0/arm/arm-none-eabi/include/c++/10.3.1/cmath ****   ldexp(long double __x, int __exp)
 324:/Library/DaisyToolchain/0.2.0/arm/arm-none-eabi/include/c++/10.3.1/cmath ****   { return __builtin_ldexpl(__x, __exp); }
 325:/Library/DaisyToolchain/0.2.0/arm/arm-none-eabi/include/c++/10.3.1/cmath **** #endif
 326:/Library/DaisyToolchain/0.2.0/arm/arm-none-eabi/include/c++/10.3.1/cmath **** 
 327:/Library/DaisyToolchain/0.2.0/arm/arm-none-eabi/include/c++/10.3.1/cmath ****   template<typename _Tp>
 328:/Library/DaisyToolchain/0.2.0/arm/arm-none-eabi/include/c++/10.3.1/cmath ****     inline _GLIBCXX_CONSTEXPR
 329:/Library/DaisyToolchain/0.2.0/arm/arm-none-eabi/include/c++/10.3.1/cmath ****     typename __gnu_cxx::__enable_if<__is_integer<_Tp>::__value, 
 330:/Library/DaisyToolchain/0.2.0/arm/arm-none-eabi/include/c++/10.3.1/cmath ****                                     double>::__type
 331:/Library/DaisyToolchain/0.2.0/arm/arm-none-eabi/include/c++/10.3.1/cmath ****     ldexp(_Tp __x, int __exp)
 332:/Library/DaisyToolchain/0.2.0/arm/arm-none-eabi/include/c++/10.3.1/cmath ****     { return __builtin_ldexp(__x, __exp); }
 333:/Library/DaisyToolchain/0.2.0/arm/arm-none-eabi/include/c++/10.3.1/cmath **** 
 334:/Library/DaisyToolchain/0.2.0/arm/arm-none-eabi/include/c++/10.3.1/cmath ****   using ::log;
 335:/Library/DaisyToolchain/0.2.0/arm/arm-none-eabi/include/c++/10.3.1/cmath **** 
 336:/Library/DaisyToolchain/0.2.0/arm/arm-none-eabi/include/c++/10.3.1/cmath **** #ifndef __CORRECT_ISO_CPP_MATH_H_PROTO
 337:/Library/DaisyToolchain/0.2.0/arm/arm-none-eabi/include/c++/10.3.1/cmath ****   inline _GLIBCXX_CONSTEXPR float
 338:/Library/DaisyToolchain/0.2.0/arm/arm-none-eabi/include/c++/10.3.1/cmath ****   log(float __x)
 339:/Library/DaisyToolchain/0.2.0/arm/arm-none-eabi/include/c++/10.3.1/cmath ****   { return __builtin_logf(__x); }
 340:/Library/DaisyToolchain/0.2.0/arm/arm-none-eabi/include/c++/10.3.1/cmath **** 
 341:/Library/DaisyToolchain/0.2.0/arm/arm-none-eabi/include/c++/10.3.1/cmath ****   inline _GLIBCXX_CONSTEXPR long double
 342:/Library/DaisyToolchain/0.2.0/arm/arm-none-eabi/include/c++/10.3.1/cmath ****   log(long double __x)
 343:/Library/DaisyToolchain/0.2.0/arm/arm-none-eabi/include/c++/10.3.1/cmath ****   { return __builtin_logl(__x); }
 344:/Library/DaisyToolchain/0.2.0/arm/arm-none-eabi/include/c++/10.3.1/cmath **** #endif
 345:/Library/DaisyToolchain/0.2.0/arm/arm-none-eabi/include/c++/10.3.1/cmath **** 
 346:/Library/DaisyToolchain/0.2.0/arm/arm-none-eabi/include/c++/10.3.1/cmath ****   template<typename _Tp>
 347:/Library/DaisyToolchain/0.2.0/arm/arm-none-eabi/include/c++/10.3.1/cmath ****     inline _GLIBCXX_CONSTEXPR
 348:/Library/DaisyToolchain/0.2.0/arm/arm-none-eabi/include/c++/10.3.1/cmath ****     typename __gnu_cxx::__enable_if<__is_integer<_Tp>::__value, 
 349:/Library/DaisyToolchain/0.2.0/arm/arm-none-eabi/include/c++/10.3.1/cmath ****                                     double>::__type
 350:/Library/DaisyToolchain/0.2.0/arm/arm-none-eabi/include/c++/10.3.1/cmath ****     log(_Tp __x)
 351:/Library/DaisyToolchain/0.2.0/arm/arm-none-eabi/include/c++/10.3.1/cmath ****     { return __builtin_log(__x); }
 352:/Library/DaisyToolchain/0.2.0/arm/arm-none-eabi/include/c++/10.3.1/cmath **** 
 353:/Library/DaisyToolchain/0.2.0/arm/arm-none-eabi/include/c++/10.3.1/cmath ****   using ::log10;
 354:/Library/DaisyToolchain/0.2.0/arm/arm-none-eabi/include/c++/10.3.1/cmath **** 
 355:/Library/DaisyToolchain/0.2.0/arm/arm-none-eabi/include/c++/10.3.1/cmath **** #ifndef __CORRECT_ISO_CPP_MATH_H_PROTO
 356:/Library/DaisyToolchain/0.2.0/arm/arm-none-eabi/include/c++/10.3.1/cmath ****   inline _GLIBCXX_CONSTEXPR float
 357:/Library/DaisyToolchain/0.2.0/arm/arm-none-eabi/include/c++/10.3.1/cmath ****   log10(float __x)
 358:/Library/DaisyToolchain/0.2.0/arm/arm-none-eabi/include/c++/10.3.1/cmath ****   { return __builtin_log10f(__x); }
 359:/Library/DaisyToolchain/0.2.0/arm/arm-none-eabi/include/c++/10.3.1/cmath **** 
ARM GAS  /var/folders/tn/k4r6j7b53kv6zg3nk3m4krpm0000gp/T//cce5pTHt.s 			page 30


 360:/Library/DaisyToolchain/0.2.0/arm/arm-none-eabi/include/c++/10.3.1/cmath ****   inline _GLIBCXX_CONSTEXPR long double
 361:/Library/DaisyToolchain/0.2.0/arm/arm-none-eabi/include/c++/10.3.1/cmath ****   log10(long double __x)
 362:/Library/DaisyToolchain/0.2.0/arm/arm-none-eabi/include/c++/10.3.1/cmath ****   { return __builtin_log10l(__x); }
 363:/Library/DaisyToolchain/0.2.0/arm/arm-none-eabi/include/c++/10.3.1/cmath **** #endif
 364:/Library/DaisyToolchain/0.2.0/arm/arm-none-eabi/include/c++/10.3.1/cmath **** 
 365:/Library/DaisyToolchain/0.2.0/arm/arm-none-eabi/include/c++/10.3.1/cmath ****   template<typename _Tp>
 366:/Library/DaisyToolchain/0.2.0/arm/arm-none-eabi/include/c++/10.3.1/cmath ****     inline _GLIBCXX_CONSTEXPR
 367:/Library/DaisyToolchain/0.2.0/arm/arm-none-eabi/include/c++/10.3.1/cmath ****     typename __gnu_cxx::__enable_if<__is_integer<_Tp>::__value,
 368:/Library/DaisyToolchain/0.2.0/arm/arm-none-eabi/include/c++/10.3.1/cmath ****                                     double>::__type
 369:/Library/DaisyToolchain/0.2.0/arm/arm-none-eabi/include/c++/10.3.1/cmath ****     log10(_Tp __x)
 370:/Library/DaisyToolchain/0.2.0/arm/arm-none-eabi/include/c++/10.3.1/cmath ****     { return __builtin_log10(__x); }
 371:/Library/DaisyToolchain/0.2.0/arm/arm-none-eabi/include/c++/10.3.1/cmath **** 
 372:/Library/DaisyToolchain/0.2.0/arm/arm-none-eabi/include/c++/10.3.1/cmath ****   using ::modf;
 373:/Library/DaisyToolchain/0.2.0/arm/arm-none-eabi/include/c++/10.3.1/cmath **** 
 374:/Library/DaisyToolchain/0.2.0/arm/arm-none-eabi/include/c++/10.3.1/cmath **** #ifndef __CORRECT_ISO_CPP_MATH_H_PROTO
 375:/Library/DaisyToolchain/0.2.0/arm/arm-none-eabi/include/c++/10.3.1/cmath ****   inline float
 376:/Library/DaisyToolchain/0.2.0/arm/arm-none-eabi/include/c++/10.3.1/cmath ****   modf(float __x, float* __iptr)
 377:/Library/DaisyToolchain/0.2.0/arm/arm-none-eabi/include/c++/10.3.1/cmath ****   { return __builtin_modff(__x, __iptr); }
 378:/Library/DaisyToolchain/0.2.0/arm/arm-none-eabi/include/c++/10.3.1/cmath **** 
 379:/Library/DaisyToolchain/0.2.0/arm/arm-none-eabi/include/c++/10.3.1/cmath ****   inline long double
 380:/Library/DaisyToolchain/0.2.0/arm/arm-none-eabi/include/c++/10.3.1/cmath ****   modf(long double __x, long double* __iptr)
 381:/Library/DaisyToolchain/0.2.0/arm/arm-none-eabi/include/c++/10.3.1/cmath ****   { return __builtin_modfl(__x, __iptr); }
 382:/Library/DaisyToolchain/0.2.0/arm/arm-none-eabi/include/c++/10.3.1/cmath **** #endif
 383:/Library/DaisyToolchain/0.2.0/arm/arm-none-eabi/include/c++/10.3.1/cmath **** 
 384:/Library/DaisyToolchain/0.2.0/arm/arm-none-eabi/include/c++/10.3.1/cmath ****   using ::pow;
 385:/Library/DaisyToolchain/0.2.0/arm/arm-none-eabi/include/c++/10.3.1/cmath **** 
 386:/Library/DaisyToolchain/0.2.0/arm/arm-none-eabi/include/c++/10.3.1/cmath **** #ifndef __CORRECT_ISO_CPP_MATH_H_PROTO
 387:/Library/DaisyToolchain/0.2.0/arm/arm-none-eabi/include/c++/10.3.1/cmath ****   inline _GLIBCXX_CONSTEXPR float
 388:/Library/DaisyToolchain/0.2.0/arm/arm-none-eabi/include/c++/10.3.1/cmath ****   pow(float __x, float __y)
 389:/Library/DaisyToolchain/0.2.0/arm/arm-none-eabi/include/c++/10.3.1/cmath ****   { return __builtin_powf(__x, __y); }
 390:/Library/DaisyToolchain/0.2.0/arm/arm-none-eabi/include/c++/10.3.1/cmath **** 
 391:/Library/DaisyToolchain/0.2.0/arm/arm-none-eabi/include/c++/10.3.1/cmath ****   inline _GLIBCXX_CONSTEXPR long double
 392:/Library/DaisyToolchain/0.2.0/arm/arm-none-eabi/include/c++/10.3.1/cmath ****   pow(long double __x, long double __y)
 393:/Library/DaisyToolchain/0.2.0/arm/arm-none-eabi/include/c++/10.3.1/cmath ****   { return __builtin_powl(__x, __y); }
 394:/Library/DaisyToolchain/0.2.0/arm/arm-none-eabi/include/c++/10.3.1/cmath **** 
 395:/Library/DaisyToolchain/0.2.0/arm/arm-none-eabi/include/c++/10.3.1/cmath **** #if __cplusplus < 201103L
 396:/Library/DaisyToolchain/0.2.0/arm/arm-none-eabi/include/c++/10.3.1/cmath ****   // _GLIBCXX_RESOLVE_LIB_DEFECTS
 397:/Library/DaisyToolchain/0.2.0/arm/arm-none-eabi/include/c++/10.3.1/cmath ****   // DR 550. What should the return type of pow(float,int) be?
 398:/Library/DaisyToolchain/0.2.0/arm/arm-none-eabi/include/c++/10.3.1/cmath ****   inline double
 399:/Library/DaisyToolchain/0.2.0/arm/arm-none-eabi/include/c++/10.3.1/cmath ****   pow(double __x, int __i)
 400:/Library/DaisyToolchain/0.2.0/arm/arm-none-eabi/include/c++/10.3.1/cmath ****   { return __builtin_powi(__x, __i); }
 401:/Library/DaisyToolchain/0.2.0/arm/arm-none-eabi/include/c++/10.3.1/cmath **** 
 402:/Library/DaisyToolchain/0.2.0/arm/arm-none-eabi/include/c++/10.3.1/cmath ****   inline float
 403:/Library/DaisyToolchain/0.2.0/arm/arm-none-eabi/include/c++/10.3.1/cmath ****   pow(float __x, int __n)
 404:/Library/DaisyToolchain/0.2.0/arm/arm-none-eabi/include/c++/10.3.1/cmath ****   { return __builtin_powif(__x, __n); }
 405:/Library/DaisyToolchain/0.2.0/arm/arm-none-eabi/include/c++/10.3.1/cmath **** 
 406:/Library/DaisyToolchain/0.2.0/arm/arm-none-eabi/include/c++/10.3.1/cmath ****   inline long double
 407:/Library/DaisyToolchain/0.2.0/arm/arm-none-eabi/include/c++/10.3.1/cmath ****   pow(long double __x, int __n)
 408:/Library/DaisyToolchain/0.2.0/arm/arm-none-eabi/include/c++/10.3.1/cmath ****   { return __builtin_powil(__x, __n); }
 409:/Library/DaisyToolchain/0.2.0/arm/arm-none-eabi/include/c++/10.3.1/cmath **** #endif
 410:/Library/DaisyToolchain/0.2.0/arm/arm-none-eabi/include/c++/10.3.1/cmath **** #endif
 411:/Library/DaisyToolchain/0.2.0/arm/arm-none-eabi/include/c++/10.3.1/cmath **** 
 412:/Library/DaisyToolchain/0.2.0/arm/arm-none-eabi/include/c++/10.3.1/cmath ****   template<typename _Tp, typename _Up>
 413:/Library/DaisyToolchain/0.2.0/arm/arm-none-eabi/include/c++/10.3.1/cmath ****     inline _GLIBCXX_CONSTEXPR
 414:/Library/DaisyToolchain/0.2.0/arm/arm-none-eabi/include/c++/10.3.1/cmath ****     typename __gnu_cxx::__promote_2<_Tp, _Up>::__type
 415:/Library/DaisyToolchain/0.2.0/arm/arm-none-eabi/include/c++/10.3.1/cmath ****     pow(_Tp __x, _Up __y)
 416:/Library/DaisyToolchain/0.2.0/arm/arm-none-eabi/include/c++/10.3.1/cmath ****     {
ARM GAS  /var/folders/tn/k4r6j7b53kv6zg3nk3m4krpm0000gp/T//cce5pTHt.s 			page 31


 417:/Library/DaisyToolchain/0.2.0/arm/arm-none-eabi/include/c++/10.3.1/cmath ****       typedef typename __gnu_cxx::__promote_2<_Tp, _Up>::__type __type;
 418:/Library/DaisyToolchain/0.2.0/arm/arm-none-eabi/include/c++/10.3.1/cmath ****       return pow(__type(__x), __type(__y));
 419:/Library/DaisyToolchain/0.2.0/arm/arm-none-eabi/include/c++/10.3.1/cmath ****     }
 420:/Library/DaisyToolchain/0.2.0/arm/arm-none-eabi/include/c++/10.3.1/cmath **** 
 421:/Library/DaisyToolchain/0.2.0/arm/arm-none-eabi/include/c++/10.3.1/cmath ****   using ::sin;
 422:/Library/DaisyToolchain/0.2.0/arm/arm-none-eabi/include/c++/10.3.1/cmath **** 
 423:/Library/DaisyToolchain/0.2.0/arm/arm-none-eabi/include/c++/10.3.1/cmath **** #ifndef __CORRECT_ISO_CPP_MATH_H_PROTO
 424:/Library/DaisyToolchain/0.2.0/arm/arm-none-eabi/include/c++/10.3.1/cmath ****   inline _GLIBCXX_CONSTEXPR float
 425:/Library/DaisyToolchain/0.2.0/arm/arm-none-eabi/include/c++/10.3.1/cmath ****   sin(float __x)
 426:/Library/DaisyToolchain/0.2.0/arm/arm-none-eabi/include/c++/10.3.1/cmath ****   { return __builtin_sinf(__x); }
 397              		.loc 17 426 26 view .LVU74
 398 0034 B0EE680A 		vmov.f32	s0, s17
 399              	.LVL15:
 400              		.loc 17 426 26 view .LVU75
 401              	.LBE615:
 402              	.LBE614:
  25:library/effects/LinkwitzRileyCrossover.cpp ****     float sinW0 = std::sin(w0);
 403              		.loc 16 25 5 is_stmt 1 view .LVU76
 404              	.LBB617:
 405              	.LBI614:
 425:/Library/DaisyToolchain/0.2.0/arm/arm-none-eabi/include/c++/10.3.1/cmath ****   { return __builtin_sinf(__x); }
 406              		.loc 17 425 3 view .LVU77
 407              	.LBB616:
 408              		.loc 17 426 5 view .LVU78
 409              		.loc 17 426 26 is_stmt 0 view .LVU79
 410 0038 FFF7FEFF 		bl	sinf
 411              	.LVL16:
 412              		.loc 17 426 26 view .LVU80
 413              	.LBE616:
 414              	.LBE617:
  26:library/effects/LinkwitzRileyCrossover.cpp **** 
  27:library/effects/LinkwitzRileyCrossover.cpp ****     float alpha = sinW0 / (2.0f * 0.707f); // Q = 0.707 for Butterworth response
 415              		.loc 16 27 5 is_stmt 1 view .LVU81
 416              		.loc 16 27 11 is_stmt 0 view .LVU82
 417 003c DFED186A 		vldr.32	s13, .L18+8
  28:library/effects/LinkwitzRileyCrossover.cpp **** 
  29:library/effects/LinkwitzRileyCrossover.cpp ****     float norm = 1.0f / (1.0f + alpha);
 418              		.loc 16 29 31 view .LVU83
 419 0040 F7EE005A 		vmov.f32	s11, #1.0e+0
  27:library/effects/LinkwitzRileyCrossover.cpp **** 
 420              		.loc 16 27 11 view .LVU84
 421 0044 C0EE267A 		vdiv.f32	s15, s0, s13
 422              	.LVL17:
 423              		.loc 16 29 5 is_stmt 1 view .LVU85
  30:library/effects/LinkwitzRileyCrossover.cpp ****     a0_ = (1.0f - cosW0) * 0.5f * norm;
  31:library/effects/LinkwitzRileyCrossover.cpp ****     a1_ = (1.0f - cosW0) * norm;
  32:library/effects/LinkwitzRileyCrossover.cpp ****     a2_ = a0_;
  33:library/effects/LinkwitzRileyCrossover.cpp ****     b1_ = -2.0f * cosW0 * norm;
 424              		.loc 16 33 17 is_stmt 0 view .LVU86
 425 0048 B8EE006A 		vmov.f32	s12, #-2.0e+0
  30:library/effects/LinkwitzRileyCrossover.cpp ****     a0_ = (1.0f - cosW0) * 0.5f * norm;
 426              		.loc 16 30 17 view .LVU87
 427 004c 75EEC86A 		vsub.f32	s13, s11, s16
  30:library/effects/LinkwitzRileyCrossover.cpp ****     a0_ = (1.0f - cosW0) * 0.5f * norm;
 428              		.loc 16 30 26 view .LVU88
 429 0050 B6EE007A 		vmov.f32	s14, #5.0e-1
 430              		.loc 16 33 17 view .LVU89
ARM GAS  /var/folders/tn/k4r6j7b53kv6zg3nk3m4krpm0000gp/T//cce5pTHt.s 			page 32


 431 0054 28EE068A 		vmul.f32	s16, s16, s12
 432              	.LVL18:
  30:library/effects/LinkwitzRileyCrossover.cpp ****     a0_ = (1.0f - cosW0) * 0.5f * norm;
 433              		.loc 16 30 26 view .LVU90
 434 0058 26EE877A 		vmul.f32	s14, s13, s14
  29:library/effects/LinkwitzRileyCrossover.cpp ****     a0_ = (1.0f - cosW0) * 0.5f * norm;
 435              		.loc 16 29 31 view .LVU91
 436 005c 37EEA55A 		vadd.f32	s10, s15, s11
  34:library/effects/LinkwitzRileyCrossover.cpp ****     b2_ = (1.0f - alpha) * norm;
 437              		.loc 16 34 17 view .LVU92
 438 0060 75EEE77A 		vsub.f32	s15, s11, s15
 439              	.LVL19:
  29:library/effects/LinkwitzRileyCrossover.cpp ****     a0_ = (1.0f - cosW0) * 0.5f * norm;
 440              		.loc 16 29 11 view .LVU93
 441 0064 85EE856A 		vdiv.f32	s12, s11, s10
 442              	.LVL20:
  30:library/effects/LinkwitzRileyCrossover.cpp ****     a0_ = (1.0f - cosW0) * 0.5f * norm;
 443              		.loc 16 30 5 is_stmt 1 view .LVU94
  33:library/effects/LinkwitzRileyCrossover.cpp ****     b2_ = (1.0f - alpha) * norm;
 444              		.loc 16 33 25 is_stmt 0 view .LVU95
 445 0068 28EE068A 		vmul.f32	s16, s16, s12
  30:library/effects/LinkwitzRileyCrossover.cpp ****     a1_ = (1.0f - cosW0) * norm;
 446              		.loc 16 30 33 view .LVU96
 447 006c 27EE067A 		vmul.f32	s14, s14, s12
  31:library/effects/LinkwitzRileyCrossover.cpp ****     a2_ = a0_;
 448              		.loc 16 31 26 view .LVU97
 449 0070 66EE866A 		vmul.f32	s13, s13, s12
 450              		.loc 16 34 26 view .LVU98
 451 0074 67EE867A 		vmul.f32	s15, s15, s12
  33:library/effects/LinkwitzRileyCrossover.cpp ****     b2_ = (1.0f - alpha) * norm;
 452              		.loc 16 33 9 view .LVU99
 453 0078 84ED058A 		vstr.32	s16, [r4, #20]
  30:library/effects/LinkwitzRileyCrossover.cpp ****     a1_ = (1.0f - cosW0) * norm;
 454              		.loc 16 30 9 view .LVU100
 455 007c 84ED027A 		vstr.32	s14, [r4, #8]
  31:library/effects/LinkwitzRileyCrossover.cpp ****     a2_ = a0_;
 456              		.loc 16 31 5 is_stmt 1 view .LVU101
  31:library/effects/LinkwitzRileyCrossover.cpp ****     a2_ = a0_;
 457              		.loc 16 31 9 is_stmt 0 view .LVU102
 458 0080 C4ED036A 		vstr.32	s13, [r4, #12]
  32:library/effects/LinkwitzRileyCrossover.cpp ****     b1_ = -2.0f * cosW0 * norm;
 459              		.loc 16 32 5 is_stmt 1 view .LVU103
  32:library/effects/LinkwitzRileyCrossover.cpp ****     b1_ = -2.0f * cosW0 * norm;
 460              		.loc 16 32 9 is_stmt 0 view .LVU104
 461 0084 84ED047A 		vstr.32	s14, [r4, #16]
  33:library/effects/LinkwitzRileyCrossover.cpp ****     b2_ = (1.0f - alpha) * norm;
 462              		.loc 16 33 5 is_stmt 1 view .LVU105
 463              		.loc 16 34 5 view .LVU106
 464              		.loc 16 34 9 is_stmt 0 view .LVU107
 465 0088 C4ED067A 		vstr.32	s15, [r4, #24]
  35:library/effects/LinkwitzRileyCrossover.cpp **** }
 466              		.loc 16 35 1 view .LVU108
 467 008c BDEC028B 		vldm	sp!, {d8}
 468              		.cfi_restore 80
 469              		.cfi_restore 81
 470              		.cfi_def_cfa_offset 8
 471 0090 10BD     		pop	{r4, pc}
ARM GAS  /var/folders/tn/k4r6j7b53kv6zg3nk3m4krpm0000gp/T//cce5pTHt.s 			page 33


 472              	.LVL21:
 473              	.L19:
 474              		.loc 16 35 1 view .LVU109
 475 0092 00BFAFF3 		.align	3
 475      0080
 476              	.L18:
 477 0098 182D4454 		.word	1413754136
 478 009c FB211940 		.word	1075388923
 479 00a0 F4FDB43F 		.word	1068826100
 480              		.cfi_endproc
 481              	.LFE4853:
 483              		.section	.text._ZN13sudwalfulkaan22LinkwitzRileyCrossover9SetCutoffEf,"ax",%progbits
 484              		.align	1
 485              		.p2align 2,,3
 486              		.global	_ZN13sudwalfulkaan22LinkwitzRileyCrossover9SetCutoffEf
 487              		.syntax unified
 488              		.thumb
 489              		.thumb_func
 491              	_ZN13sudwalfulkaan22LinkwitzRileyCrossover9SetCutoffEf:
 492              	.LVL22:
 493              	.LFB4852:
  17:library/effects/LinkwitzRileyCrossover.cpp ****     cutoff_ = cutoff;
 494              		.loc 16 17 54 is_stmt 1 view -0
 495              		.cfi_startproc
 496              		@ args = 0, pretend = 0, frame = 0
 497              		@ frame_needed = 0, uses_anonymous_args = 0
 498              		@ link register save eliminated.
  18:library/effects/LinkwitzRileyCrossover.cpp ****     UpdateCoefficients();
 499              		.loc 16 18 5 view .LVU111
  18:library/effects/LinkwitzRileyCrossover.cpp ****     UpdateCoefficients();
 500              		.loc 16 18 13 is_stmt 0 view .LVU112
 501 0000 80ED000A 		vstr.32	s0, [r0]
  19:library/effects/LinkwitzRileyCrossover.cpp **** }
 502              		.loc 16 19 5 is_stmt 1 view .LVU113
  19:library/effects/LinkwitzRileyCrossover.cpp **** }
 503              		.loc 16 19 23 is_stmt 0 view .LVU114
 504 0004 FFF7FEBF 		b	_ZN13sudwalfulkaan22LinkwitzRileyCrossover18UpdateCoefficientsEv
 505              	.LVL23:
  19:library/effects/LinkwitzRileyCrossover.cpp **** }
 506              		.loc 16 19 23 view .LVU115
 507              		.cfi_endproc
 508              	.LFE4852:
 510              		.section	.text._ZN13sudwalfulkaan22LinkwitzRileyCrossover4InitEff,"ax",%progbits
 511              		.align	1
 512              		.p2align 2,,3
 513              		.global	_ZN13sudwalfulkaan22LinkwitzRileyCrossover4InitEff
 514              		.syntax unified
 515              		.thumb
 516              		.thumb_func
 518              	_ZN13sudwalfulkaan22LinkwitzRileyCrossover4InitEff:
 519              	.LVL24:
 520              	.LFB4851:
  11:library/effects/LinkwitzRileyCrossover.cpp ****     sampleRate_ = sampleRate;
 521              		.loc 16 11 67 is_stmt 1 view -0
 522              		.cfi_startproc
 523              		@ args = 0, pretend = 0, frame = 0
 524              		@ frame_needed = 0, uses_anonymous_args = 0
ARM GAS  /var/folders/tn/k4r6j7b53kv6zg3nk3m4krpm0000gp/T//cce5pTHt.s 			page 34


  12:library/effects/LinkwitzRileyCrossover.cpp ****     SetCutoff(cutoff);
 525              		.loc 16 12 5 view .LVU117
  11:library/effects/LinkwitzRileyCrossover.cpp ****     sampleRate_ = sampleRate;
 526              		.loc 16 11 67 is_stmt 0 view .LVU118
 527 0000 10B5     		push	{r4, lr}
 528              		.cfi_def_cfa_offset 8
 529              		.cfi_offset 4, -8
 530              		.cfi_offset 14, -4
  12:library/effects/LinkwitzRileyCrossover.cpp ****     SetCutoff(cutoff);
 531              		.loc 16 12 17 view .LVU119
 532 0002 C0ED010A 		vstr.32	s1, [r0, #4]
  13:library/effects/LinkwitzRileyCrossover.cpp ****     lowPrev1_ = lowPrev2_ = highPrev1_ = highPrev2_ = 0.0f;
 533              		.loc 16 13 5 is_stmt 1 view .LVU120
 534              	.LVL25:
 535              	.LBB618:
 536              	.LBI618:
  17:library/effects/LinkwitzRileyCrossover.cpp ****     cutoff_ = cutoff;
 537              		.loc 16 17 6 view .LVU121
 538              	.LBB619:
  18:library/effects/LinkwitzRileyCrossover.cpp ****     UpdateCoefficients();
 539              		.loc 16 18 5 view .LVU122
 540              	.LBE619:
 541              	.LBE618:
  11:library/effects/LinkwitzRileyCrossover.cpp ****     sampleRate_ = sampleRate;
 542              		.loc 16 11 67 is_stmt 0 view .LVU123
 543 0006 0446     		mov	r4, r0
 544              	.LBB621:
 545              	.LBB620:
  18:library/effects/LinkwitzRileyCrossover.cpp ****     UpdateCoefficients();
 546              		.loc 16 18 13 view .LVU124
 547 0008 80ED000A 		vstr.32	s0, [r0]
  19:library/effects/LinkwitzRileyCrossover.cpp **** }
 548              		.loc 16 19 5 is_stmt 1 view .LVU125
  19:library/effects/LinkwitzRileyCrossover.cpp **** }
 549              		.loc 16 19 23 is_stmt 0 view .LVU126
 550 000c FFF7FEFF 		bl	_ZN13sudwalfulkaan22LinkwitzRileyCrossover18UpdateCoefficientsEv
 551              	.LVL26:
  19:library/effects/LinkwitzRileyCrossover.cpp **** }
 552              		.loc 16 19 23 view .LVU127
 553              	.LBE620:
 554              	.LBE621:
  14:library/effects/LinkwitzRileyCrossover.cpp **** }
 555              		.loc 16 14 5 is_stmt 1 view .LVU128
  14:library/effects/LinkwitzRileyCrossover.cpp **** }
 556              		.loc 16 14 53 is_stmt 0 view .LVU129
 557 0010 0023     		movs	r3, #0
 558 0012 A362     		str	r3, [r4, #40]	@ float
  14:library/effects/LinkwitzRileyCrossover.cpp **** }
 559              		.loc 16 14 40 view .LVU130
 560 0014 6362     		str	r3, [r4, #36]	@ float
  14:library/effects/LinkwitzRileyCrossover.cpp **** }
 561              		.loc 16 14 27 view .LVU131
 562 0016 2362     		str	r3, [r4, #32]	@ float
  14:library/effects/LinkwitzRileyCrossover.cpp **** }
 563              		.loc 16 14 15 view .LVU132
 564 0018 E361     		str	r3, [r4, #28]	@ float
  15:library/effects/LinkwitzRileyCrossover.cpp **** 
ARM GAS  /var/folders/tn/k4r6j7b53kv6zg3nk3m4krpm0000gp/T//cce5pTHt.s 			page 35


 565              		.loc 16 15 1 view .LVU133
 566 001a 10BD     		pop	{r4, pc}
  15:library/effects/LinkwitzRileyCrossover.cpp **** 
 567              		.loc 16 15 1 view .LVU134
 568              		.cfi_endproc
 569              	.LFE4851:
 571              		.section	.text._ZN13sudwalfulkaan22LinkwitzRileyCrossover7ProcessEfRfS1_,"ax",%progbits
 572              		.align	1
 573              		.p2align 2,,3
 574              		.global	_ZN13sudwalfulkaan22LinkwitzRileyCrossover7ProcessEfRfS1_
 575              		.syntax unified
 576              		.thumb
 577              		.thumb_func
 579              	_ZN13sudwalfulkaan22LinkwitzRileyCrossover7ProcessEfRfS1_:
 580              	.LVL27:
 581              	.LFB4854:
  36:library/effects/LinkwitzRileyCrossover.cpp **** 
  37:library/effects/LinkwitzRileyCrossover.cpp **** void LinkwitzRileyCrossover::Process(float in, float& lowOut, float& highOut) {
 582              		.loc 16 37 79 is_stmt 1 view -0
 583              		.cfi_startproc
 584              		@ args = 0, pretend = 0, frame = 0
 585              		@ frame_needed = 0, uses_anonymous_args = 0
 586              		@ link register save eliminated.
  38:library/effects/LinkwitzRileyCrossover.cpp ****     // Process low-pass filter twice (4th-order)
  39:library/effects/LinkwitzRileyCrossover.cpp ****     float low = a0_ * in + a1_ * lowPrev1_ + a2_ * lowPrev2_ - b1_ * highPrev1_ - b2_ * highPrev2_;
 587              		.loc 16 39 5 view .LVU136
 588              		.loc 16 39 34 is_stmt 0 view .LVU137
 589 0000 90ED076A 		vldr.32	s12, [r0, #28]
 590              		.loc 16 39 28 view .LVU138
 591 0004 D0ED037A 		vldr.32	s15, [r0, #12]
 592              		.loc 16 39 17 view .LVU139
 593 0008 90ED024A 		vldr.32	s8, [r0, #8]
 594              		.loc 16 39 32 view .LVU140
 595 000c 27EE867A 		vmul.f32	s14, s15, s12
 596              		.loc 16 39 46 view .LVU141
 597 0010 D0ED044A 		vldr.32	s9, [r0, #16]
 598              		.loc 16 39 44 view .LVU142
 599 0014 90ED083A 		vldr.32	s6, [r0, #32]
  40:library/effects/LinkwitzRileyCrossover.cpp **** 
  41:library/effects/LinkwitzRileyCrossover.cpp ****     // Store previous values for LPF
  42:library/effects/LinkwitzRileyCrossover.cpp ****     lowPrev2_ = lowPrev1_;
  43:library/effects/LinkwitzRileyCrossover.cpp ****     lowPrev1_ = in;
  44:library/effects/LinkwitzRileyCrossover.cpp ****     highPrev2_ = highPrev1_;
  45:library/effects/LinkwitzRileyCrossover.cpp ****     highPrev1_ = low;
  46:library/effects/LinkwitzRileyCrossover.cpp **** 
  47:library/effects/LinkwitzRileyCrossover.cpp ****     // Apply LPF again for 4th order
  48:library/effects/LinkwitzRileyCrossover.cpp ****     float lowFiltered = a0_ * low + a1_ * lowPrev1_ + a2_ * lowPrev2_ - b1_ * highPrev1_ - b2_ * hi
 600              		.loc 16 48 41 view .LVU143
 601 0018 67EE807A 		vmul.f32	s15, s15, s0
  39:library/effects/LinkwitzRileyCrossover.cpp **** 
 602              		.loc 16 39 70 view .LVU144
 603 001c D0ED096A 		vldr.32	s13, [r0, #36]
  39:library/effects/LinkwitzRileyCrossover.cpp **** 
 604              		.loc 16 39 26 view .LVU145
 605 0020 A4EE007A 		vfma.f32	s14, s8, s0
  39:library/effects/LinkwitzRileyCrossover.cpp **** 
 606              		.loc 16 39 64 view .LVU146
ARM GAS  /var/folders/tn/k4r6j7b53kv6zg3nk3m4krpm0000gp/T//cce5pTHt.s 			page 36


 607 0024 90ED055A 		vldr.32	s10, [r0, #20]
  39:library/effects/LinkwitzRileyCrossover.cpp **** 
 608              		.loc 16 39 83 view .LVU147
 609 0028 D0ED065A 		vldr.32	s11, [r0, #24]
  39:library/effects/LinkwitzRileyCrossover.cpp **** 
 610              		.loc 16 39 11 view .LVU148
 611 002c D0ED0A3A 		vldr.32	s7, [r0, #40]
  43:library/effects/LinkwitzRileyCrossover.cpp ****     highPrev2_ = highPrev1_;
 612              		.loc 16 43 15 view .LVU149
 613 0030 80ED070A 		vstr.32	s0, [r0, #28]
  42:library/effects/LinkwitzRileyCrossover.cpp ****     lowPrev1_ = in;
 614              		.loc 16 42 15 view .LVU150
 615 0034 80ED086A 		vstr.32	s12, [r0, #32]
  44:library/effects/LinkwitzRileyCrossover.cpp ****     highPrev1_ = low;
 616              		.loc 16 44 16 view .LVU151
 617 0038 C0ED0A6A 		vstr.32	s13, [r0, #40]
  39:library/effects/LinkwitzRileyCrossover.cpp **** 
 618              		.loc 16 39 44 view .LVU152
 619 003c A4EE837A 		vfma.f32	s14, s9, s6
  39:library/effects/LinkwitzRileyCrossover.cpp **** 
 620              		.loc 16 39 62 view .LVU153
 621 0040 A5EE667A 		vfms.f32	s14, s10, s13
  39:library/effects/LinkwitzRileyCrossover.cpp **** 
 622              		.loc 16 39 11 view .LVU154
 623 0044 A5EEE37A 		vfms.f32	s14, s11, s7
 624              	.LVL28:
  42:library/effects/LinkwitzRileyCrossover.cpp ****     lowPrev1_ = in;
 625              		.loc 16 42 5 is_stmt 1 view .LVU155
  43:library/effects/LinkwitzRileyCrossover.cpp ****     highPrev2_ = highPrev1_;
 626              		.loc 16 43 5 view .LVU156
  44:library/effects/LinkwitzRileyCrossover.cpp ****     highPrev1_ = low;
 627              		.loc 16 44 5 view .LVU157
  45:library/effects/LinkwitzRileyCrossover.cpp **** 
 628              		.loc 16 45 5 view .LVU158
 629              		.loc 16 48 35 is_stmt 0 view .LVU159
 630 0048 E4EE077A 		vfma.f32	s15, s8, s14
  45:library/effects/LinkwitzRileyCrossover.cpp **** 
 631              		.loc 16 45 16 view .LVU160
 632 004c 80ED097A 		vstr.32	s14, [r0, #36]
 633              		.loc 16 48 5 is_stmt 1 view .LVU161
 634              		.loc 16 48 53 is_stmt 0 view .LVU162
 635 0050 E6EE247A 		vfma.f32	s15, s12, s9
 636              		.loc 16 48 71 view .LVU163
 637 0054 E5EE477A 		vfms.f32	s15, s10, s14
 638              		.loc 16 48 11 view .LVU164
 639 0058 E6EEE57A 		vfms.f32	s15, s13, s11
 640              	.LVL29:
  49:library/effects/LinkwitzRileyCrossover.cpp **** 
  50:library/effects/LinkwitzRileyCrossover.cpp ****     // High-pass output is calculated by subtracting the **4th order** lowpass from input
  51:library/effects/LinkwitzRileyCrossover.cpp ****     float highFiltered = in - lowFiltered;
 641              		.loc 16 51 5 is_stmt 1 view .LVU165
  52:library/effects/LinkwitzRileyCrossover.cpp **** 
  53:library/effects/LinkwitzRileyCrossover.cpp ****     // Assign outputs
  54:library/effects/LinkwitzRileyCrossover.cpp ****     lowOut = lowFiltered;
 642              		.loc 16 54 5 view .LVU166
  51:library/effects/LinkwitzRileyCrossover.cpp **** 
 643              		.loc 16 51 11 is_stmt 0 view .LVU167
ARM GAS  /var/folders/tn/k4r6j7b53kv6zg3nk3m4krpm0000gp/T//cce5pTHt.s 			page 37


 644 005c 30EE670A 		vsub.f32	s0, s0, s15
 645              	.LVL30:
 646              		.loc 16 54 12 view .LVU168
 647 0060 C1ED007A 		vstr.32	s15, [r1]
 648              	.LVL31:
  55:library/effects/LinkwitzRileyCrossover.cpp ****     highOut = highFiltered;
 649              		.loc 16 55 5 is_stmt 1 view .LVU169
 650              		.loc 16 55 13 is_stmt 0 view .LVU170
 651 0064 82ED000A 		vstr.32	s0, [r2]
  56:library/effects/LinkwitzRileyCrossover.cpp **** }...
 652              		.loc 16 56 1 view .LVU171
 653 0068 7047     		bx	lr
 654              		.cfi_endproc
 655              	.LFE4854:
 657 006a 00BF     		.section	.text._ZN13sudwalfulkaan10Saturation4InitEffi,"ax",%progbits
 658              		.align	1
 659              		.p2align 2,,3
 660              		.global	_ZN13sudwalfulkaan10Saturation4InitEffi
 661              		.syntax unified
 662              		.thumb
 663              		.thumb_func
 665              	_ZN13sudwalfulkaan10Saturation4InitEffi:
 666              	.LVL32:
 667              	.LFB4855:
 668              		.file 18 "library/effects/Saturation.cpp"
   1:library/effects/Saturation.cpp **** #include "Saturation.h"
   2:library/effects/Saturation.cpp **** #include <cmath>
   3:library/effects/Saturation.cpp **** #include "daisysp.h"
   4:library/effects/Saturation.cpp **** 
   5:library/effects/Saturation.cpp **** using namespace sudwalfulkaan;
   6:library/effects/Saturation.cpp **** using namespace daisysp;
   7:library/effects/Saturation.cpp **** 
   8:library/effects/Saturation.cpp **** void Saturation::Init(float gain = 1.0f, float drywet = 1.f, int mode = SOFT_CLIPPING) {
 669              		.loc 18 8 88 is_stmt 1 view -0
 670              		.cfi_startproc
 671              		@ args = 0, pretend = 0, frame = 0
 672              		@ frame_needed = 0, uses_anonymous_args = 0
 673              		@ link register save eliminated.
   9:library/effects/Saturation.cpp ****     gain_ = gain;
 674              		.loc 18 9 5 view .LVU173
 675              		.loc 18 9 11 is_stmt 0 view .LVU174
 676 0000 80ED000A 		vstr.32	s0, [r0]
  10:library/effects/Saturation.cpp ****     mode_ = mode;
 677              		.loc 18 10 5 is_stmt 1 view .LVU175
 678              		.loc 18 10 11 is_stmt 0 view .LVU176
 679 0004 4160     		str	r1, [r0, #4]
  11:library/effects/Saturation.cpp ****     drywet_ = drywet;
 680              		.loc 18 11 5 is_stmt 1 view .LVU177
 681              		.loc 18 11 13 is_stmt 0 view .LVU178
 682 0006 C0ED020A 		vstr.32	s1, [r0, #8]
  12:library/effects/Saturation.cpp **** }
 683              		.loc 18 12 1 view .LVU179
 684 000a 7047     		bx	lr
 685              		.cfi_endproc
 686              	.LFE4855:
 688              		.section	.text._ZN13sudwalfulkaan10Saturation9setDryWetEf,"ax",%progbits
 689              		.align	1
ARM GAS  /var/folders/tn/k4r6j7b53kv6zg3nk3m4krpm0000gp/T//cce5pTHt.s 			page 38


 690              		.p2align 2,,3
 691              		.global	_ZN13sudwalfulkaan10Saturation9setDryWetEf
 692              		.syntax unified
 693              		.thumb
 694              		.thumb_func
 696              	_ZN13sudwalfulkaan10Saturation9setDryWetEf:
 697              	.LVL33:
 698              	.LFB4856:
  13:library/effects/Saturation.cpp **** void Saturation::setDryWet(float drywet) {
 699              		.loc 18 13 42 is_stmt 1 view -0
 700              		.cfi_startproc
 701              		@ args = 0, pretend = 0, frame = 0
 702              		@ frame_needed = 0, uses_anonymous_args = 0
 703              		@ link register save eliminated.
  14:library/effects/Saturation.cpp ****     drywet_ = drywet;
 704              		.loc 18 14 5 view .LVU181
 705              		.loc 18 14 13 is_stmt 0 view .LVU182
 706 0000 80ED020A 		vstr.32	s0, [r0, #8]
  15:library/effects/Saturation.cpp **** }
 707              		.loc 18 15 1 view .LVU183
 708 0004 7047     		bx	lr
 709              		.cfi_endproc
 710              	.LFE4856:
 712 0006 00BF     		.section	.text._ZN13sudwalfulkaan10Saturation7SetGainEf,"ax",%progbits
 713              		.align	1
 714              		.p2align 2,,3
 715              		.global	_ZN13sudwalfulkaan10Saturation7SetGainEf
 716              		.syntax unified
 717              		.thumb
 718              		.thumb_func
 720              	_ZN13sudwalfulkaan10Saturation7SetGainEf:
 721              	.LVL34:
 722              	.LFB4857:
  16:library/effects/Saturation.cpp **** void Saturation::SetGain(float gain) {
 723              		.loc 18 16 38 is_stmt 1 view -0
 724              		.cfi_startproc
 725              		@ args = 0, pretend = 0, frame = 0
 726              		@ frame_needed = 0, uses_anonymous_args = 0
 727              		@ link register save eliminated.
  17:library/effects/Saturation.cpp ****     gain_ = gain * 9.f + 1.f;
 728              		.loc 18 17 5 view .LVU185
 729              		.loc 18 17 24 is_stmt 0 view .LVU186
 730 0000 B2EE027A 		vmov.f32	s14, #9.0e+0
 731 0004 F7EE007A 		vmov.f32	s15, #1.0e+0
 732 0008 E0EE077A 		vfma.f32	s15, s0, s14
 733              		.loc 18 17 11 view .LVU187
 734 000c C0ED007A 		vstr.32	s15, [r0]
  18:library/effects/Saturation.cpp **** }
 735              		.loc 18 18 1 view .LVU188
 736 0010 7047     		bx	lr
 737              		.cfi_endproc
 738              	.LFE4857:
 740 0012 00BF     		.section	.text._ZN13sudwalfulkaan10Saturation7SetModeEf,"ax",%progbits
 741              		.align	1
 742              		.p2align 2,,3
 743              		.global	_ZN13sudwalfulkaan10Saturation7SetModeEf
 744              		.syntax unified
ARM GAS  /var/folders/tn/k4r6j7b53kv6zg3nk3m4krpm0000gp/T//cce5pTHt.s 			page 39


 745              		.thumb
 746              		.thumb_func
 748              	_ZN13sudwalfulkaan10Saturation7SetModeEf:
 749              	.LVL35:
 750              	.LFB4858:
  19:library/effects/Saturation.cpp **** 
  20:library/effects/Saturation.cpp **** void Saturation::SetMode(float mode) {
 751              		.loc 18 20 38 is_stmt 1 view -0
 752              		.cfi_startproc
 753              		@ args = 0, pretend = 0, frame = 0
 754              		@ frame_needed = 0, uses_anonymous_args = 0
 755              		@ link register save eliminated.
  21:library/effects/Saturation.cpp ****     // Map mode to an evenly distributed integer value
  22:library/effects/Saturation.cpp ****     mode_ = static_cast<int>(mode);
 756              		.loc 18 22 5 view .LVU190
 757              		.loc 18 22 13 is_stmt 0 view .LVU191
 758 0000 BDEEC00A 		vcvt.s32.f32	s0, s0
 759              	.LVL36:
 760              		.loc 18 22 13 view .LVU192
 761 0004 80ED010A 		vstr.32	s0, [r0, #4]	@ int
  23:library/effects/Saturation.cpp **** }
 762              		.loc 18 23 1 view .LVU193
 763 0008 7047     		bx	lr
 764              		.cfi_endproc
 765              	.LFE4858:
 767 000a 00BF     		.section	.text._ZN13sudwalfulkaan10Saturation7GetModeEv,"ax",%progbits
 768              		.align	1
 769              		.p2align 2,,3
 770              		.global	_ZN13sudwalfulkaan10Saturation7GetModeEv
 771              		.syntax unified
 772              		.thumb
 773              		.thumb_func
 775              	_ZN13sudwalfulkaan10Saturation7GetModeEv:
 776              	.LVL37:
 777              	.LFB4859:
  24:library/effects/Saturation.cpp **** 
  25:library/effects/Saturation.cpp **** int Saturation::GetMode() {
 778              		.loc 18 25 27 is_stmt 1 view -0
 779              		.cfi_startproc
 780              		@ args = 0, pretend = 0, frame = 0
 781              		@ frame_needed = 0, uses_anonymous_args = 0
 782              		@ link register save eliminated.
  26:library/effects/Saturation.cpp ****     return mode_;
 783              		.loc 18 26 5 view .LVU195
  27:library/effects/Saturation.cpp **** }
 784              		.loc 18 27 1 is_stmt 0 view .LVU196
 785 0000 4068     		ldr	r0, [r0, #4]
 786              	.LVL38:
 787              		.loc 18 27 1 view .LVU197
 788 0002 7047     		bx	lr
 789              		.cfi_endproc
 790              	.LFE4859:
 792              		.section	.text._ZN13sudwalfulkaan10Saturation15ApplySaturationEf,"ax",%progbits
 793              		.align	1
 794              		.p2align 2,,3
 795              		.global	_ZN13sudwalfulkaan10Saturation15ApplySaturationEf
 796              		.syntax unified
ARM GAS  /var/folders/tn/k4r6j7b53kv6zg3nk3m4krpm0000gp/T//cce5pTHt.s 			page 40


 797              		.thumb
 798              		.thumb_func
 800              	_ZN13sudwalfulkaan10Saturation15ApplySaturationEf:
 801              	.LVL39:
 802              	.LFB4861:
  28:library/effects/Saturation.cpp **** 
  29:library/effects/Saturation.cpp **** float Saturation::Process(float in) {
  30:library/effects/Saturation.cpp ****     float x = in * gain_;
  31:library/effects/Saturation.cpp ****     float saturated = ApplySaturation(x);
  32:library/effects/Saturation.cpp ****     return drywet_ * saturated  + ((1.f - drywet_) * in);
  33:library/effects/Saturation.cpp **** }
  34:library/effects/Saturation.cpp **** 
  35:library/effects/Saturation.cpp **** float Saturation::ApplySaturation(float x) {
 803              		.loc 18 35 44 is_stmt 1 view -0
 804              		.cfi_startproc
 805              		@ args = 0, pretend = 0, frame = 0
 806              		@ frame_needed = 0, uses_anonymous_args = 0
  36:library/effects/Saturation.cpp ****     switch (mode_) {        
 807              		.loc 18 36 5 view .LVU199
  35:library/effects/Saturation.cpp ****     switch (mode_) {        
 808              		.loc 18 35 44 is_stmt 0 view .LVU200
 809 0000 08B5     		push	{r3, lr}
 810              		.cfi_def_cfa_offset 8
 811              		.cfi_offset 3, -8
 812              		.cfi_offset 14, -4
 813              		.loc 18 36 5 view .LVU201
 814 0002 4368     		ldr	r3, [r0, #4]
 815 0004 013B     		subs	r3, r3, #1
  35:library/effects/Saturation.cpp ****     switch (mode_) {        
 816              		.loc 18 35 44 view .LVU202
 817 0006 2DED028B 		vpush.64	{d8}
 818              		.cfi_def_cfa_offset 16
 819              		.cfi_offset 80, -16
 820              		.cfi_offset 81, -12
  35:library/effects/Saturation.cpp ****     switch (mode_) {        
 821              		.loc 18 35 44 view .LVU203
 822 000a B0EE408A 		vmov.f32	s16, s0
 823              		.loc 18 36 5 view .LVU204
 824 000e 092B     		cmp	r3, #9
 825 0010 5FD8     		bhi	.L55
 826 0012 DFE803F0 		tbb	[pc, r3]
 827              	.L32:
 828 0016 0A       		.byte	(.L40-.L32)/2
 829 0017 15       		.byte	(.L39-.L32)/2
 830 0018 1B       		.byte	(.L38-.L32)/2
 831 0019 21       		.byte	(.L37-.L32)/2
 832 001a 2C       		.byte	(.L36-.L32)/2
 833 001b 3A       		.byte	(.L35-.L32)/2
 834 001c 40       		.byte	(.L34-.L32)/2
 835 001d 54       		.byte	(.L33-.L32)/2
 836 001e 5E       		.byte	(.L55-.L32)/2
 837 001f 05       		.byte	(.L31-.L32)/2
 838              		.p2align 1
 839              	.L31:
  37:library/effects/Saturation.cpp ****         case SOFT_CLIPPING: return  x / (1 + std::fabs(x));
  38:library/effects/Saturation.cpp ****         case TANH_SATURATION: return std::tanh(x);
  39:library/effects/Saturation.cpp ****         case ARCTAN_SATURATION: return std::atan(x);
ARM GAS  /var/folders/tn/k4r6j7b53kv6zg3nk3m4krpm0000gp/T//cce5pTHt.s 			page 41


  40:library/effects/Saturation.cpp ****         case CUBIC_SATURATION: return x - (1.0f / 3.0f) * x * x * x;
  41:library/effects/Saturation.cpp ****         case QUADRATIC_SATURATION: return (x > 1.0f) ? (2.0f - (1.0f / x)) : x; 
  42:library/effects/Saturation.cpp ****         case SINE_SATURATION: return std::sin(x);
  43:library/effects/Saturation.cpp ****         case EXP_SATURATION: return 1 - exp(-std::fabs(x)) * (x < 0 ? -1 : 1); 
  44:library/effects/Saturation.cpp ****         case HARD_CLIP: return (std::max(-1.0f, std::min(1.0f, x)))*.8f; 
  45:library/effects/Saturation.cpp ****         case RECTIFIER_SATURATION: return std::fabs(x); 
 840              		.loc 18 45 9 is_stmt 1 view .LVU205
 841              		.loc 18 45 36 view .LVU206
 842              	.LVL40:
 843              	.LBB622:
 844              	.LBI622:
 241:/Library/DaisyToolchain/0.2.0/arm/arm-none-eabi/include/c++/10.3.1/cmath ****   { return __builtin_fabsf(__x); }
 845              		.loc 17 241 3 view .LVU207
 846              	.LBB623:
 242:/Library/DaisyToolchain/0.2.0/arm/arm-none-eabi/include/c++/10.3.1/cmath **** 
 847              		.loc 17 242 5 view .LVU208
 242:/Library/DaisyToolchain/0.2.0/arm/arm-none-eabi/include/c++/10.3.1/cmath **** 
 848              		.loc 17 242 31 is_stmt 0 view .LVU209
 849 0020 B0EEC00A 		vabs.f32	s0, s0
 850              	.LVL41:
 851              	.L29:
 242:/Library/DaisyToolchain/0.2.0/arm/arm-none-eabi/include/c++/10.3.1/cmath **** 
 852              		.loc 17 242 31 view .LVU210
 853              	.LBE623:
 854              	.LBE622:
  46:library/effects/Saturation.cpp ****         default: return x;
  47:library/effects/Saturation.cpp ****     }
  48:library/effects/Saturation.cpp **** }...
 855              		.loc 18 48 1 view .LVU211
 856 0024 BDEC028B 		vldm	sp!, {d8}
 857              		.cfi_remember_state
 858              		.cfi_restore 80
 859              		.cfi_restore 81
 860              		.cfi_def_cfa_offset 8
 861              	.LVL42:
 862              		.loc 18 48 1 view .LVU212
 863 0028 08BD     		pop	{r3, pc}
 864              	.LVL43:
 865              	.L40:
 866              		.cfi_restore_state
  37:library/effects/Saturation.cpp ****         case SOFT_CLIPPING: return  x / (1 + std::fabs(x));
 867              		.loc 18 37 9 is_stmt 1 view .LVU213
  37:library/effects/Saturation.cpp ****         case SOFT_CLIPPING: return  x / (1 + std::fabs(x));
 868              		.loc 18 37 29 view .LVU214
 869              	.LBB624:
 870              	.LBI624:
 241:/Library/DaisyToolchain/0.2.0/arm/arm-none-eabi/include/c++/10.3.1/cmath ****   { return __builtin_fabsf(__x); }
 871              		.loc 17 241 3 view .LVU215
 872              	.LBB625:
 242:/Library/DaisyToolchain/0.2.0/arm/arm-none-eabi/include/c++/10.3.1/cmath **** 
 873              		.loc 17 242 5 view .LVU216
 242:/Library/DaisyToolchain/0.2.0/arm/arm-none-eabi/include/c++/10.3.1/cmath **** 
 874              		.loc 17 242 31 is_stmt 0 view .LVU217
 875 002a F0EEC07A 		vabs.f32	s15, s0
 876              	.LBE625:
 877              	.LBE624:
  37:library/effects/Saturation.cpp ****         case SOFT_CLIPPING: return  x / (1 + std::fabs(x));
ARM GAS  /var/folders/tn/k4r6j7b53kv6zg3nk3m4krpm0000gp/T//cce5pTHt.s 			page 42


 878              		.loc 18 37 44 view .LVU218
 879 002e B7EE007A 		vmov.f32	s14, #1.0e+0
 880 0032 77EE877A 		vadd.f32	s15, s15, s14
  37:library/effects/Saturation.cpp ****         case SOFT_CLIPPING: return  x / (1 + std::fabs(x));
 881              		.loc 18 37 58 view .LVU219
 882 0036 88EE270A 		vdiv.f32	s0, s16, s15
 883              	.LVL44:
 884              		.loc 18 48 1 view .LVU220
 885 003a BDEC028B 		vldm	sp!, {d8}
 886              		.cfi_remember_state
 887              		.cfi_restore 80
 888              		.cfi_restore 81
 889              		.cfi_def_cfa_offset 8
 890              	.LVL45:
 891              		.loc 18 48 1 view .LVU221
 892 003e 08BD     		pop	{r3, pc}
 893              	.LVL46:
 894              	.L39:
 895              		.cfi_restore_state
  38:library/effects/Saturation.cpp ****         case TANH_SATURATION: return std::tanh(x);
 896              		.loc 18 38 9 is_stmt 1 view .LVU222
  38:library/effects/Saturation.cpp ****         case TANH_SATURATION: return std::tanh(x);
 897              		.loc 18 38 31 view .LVU223
 898              	.LBB626:
 899              	.LBI626:
 427:/Library/DaisyToolchain/0.2.0/arm/arm-none-eabi/include/c++/10.3.1/cmath **** 
 428:/Library/DaisyToolchain/0.2.0/arm/arm-none-eabi/include/c++/10.3.1/cmath ****   inline _GLIBCXX_CONSTEXPR long double
 429:/Library/DaisyToolchain/0.2.0/arm/arm-none-eabi/include/c++/10.3.1/cmath ****   sin(long double __x)
 430:/Library/DaisyToolchain/0.2.0/arm/arm-none-eabi/include/c++/10.3.1/cmath ****   { return __builtin_sinl(__x); }
 431:/Library/DaisyToolchain/0.2.0/arm/arm-none-eabi/include/c++/10.3.1/cmath **** #endif
 432:/Library/DaisyToolchain/0.2.0/arm/arm-none-eabi/include/c++/10.3.1/cmath **** 
 433:/Library/DaisyToolchain/0.2.0/arm/arm-none-eabi/include/c++/10.3.1/cmath ****   template<typename _Tp>
 434:/Library/DaisyToolchain/0.2.0/arm/arm-none-eabi/include/c++/10.3.1/cmath ****     inline _GLIBCXX_CONSTEXPR
 435:/Library/DaisyToolchain/0.2.0/arm/arm-none-eabi/include/c++/10.3.1/cmath ****     typename __gnu_cxx::__enable_if<__is_integer<_Tp>::__value, 
 436:/Library/DaisyToolchain/0.2.0/arm/arm-none-eabi/include/c++/10.3.1/cmath ****                                     double>::__type
 437:/Library/DaisyToolchain/0.2.0/arm/arm-none-eabi/include/c++/10.3.1/cmath ****     sin(_Tp __x)
 438:/Library/DaisyToolchain/0.2.0/arm/arm-none-eabi/include/c++/10.3.1/cmath ****     { return __builtin_sin(__x); }
 439:/Library/DaisyToolchain/0.2.0/arm/arm-none-eabi/include/c++/10.3.1/cmath **** 
 440:/Library/DaisyToolchain/0.2.0/arm/arm-none-eabi/include/c++/10.3.1/cmath ****   using ::sinh;
 441:/Library/DaisyToolchain/0.2.0/arm/arm-none-eabi/include/c++/10.3.1/cmath **** 
 442:/Library/DaisyToolchain/0.2.0/arm/arm-none-eabi/include/c++/10.3.1/cmath **** #ifndef __CORRECT_ISO_CPP_MATH_H_PROTO
 443:/Library/DaisyToolchain/0.2.0/arm/arm-none-eabi/include/c++/10.3.1/cmath ****   inline _GLIBCXX_CONSTEXPR float
 444:/Library/DaisyToolchain/0.2.0/arm/arm-none-eabi/include/c++/10.3.1/cmath ****   sinh(float __x)
 445:/Library/DaisyToolchain/0.2.0/arm/arm-none-eabi/include/c++/10.3.1/cmath ****   { return __builtin_sinhf(__x); }
 446:/Library/DaisyToolchain/0.2.0/arm/arm-none-eabi/include/c++/10.3.1/cmath **** 
 447:/Library/DaisyToolchain/0.2.0/arm/arm-none-eabi/include/c++/10.3.1/cmath ****   inline _GLIBCXX_CONSTEXPR long double
 448:/Library/DaisyToolchain/0.2.0/arm/arm-none-eabi/include/c++/10.3.1/cmath ****   sinh(long double __x)
 449:/Library/DaisyToolchain/0.2.0/arm/arm-none-eabi/include/c++/10.3.1/cmath ****   { return __builtin_sinhl(__x); }
 450:/Library/DaisyToolchain/0.2.0/arm/arm-none-eabi/include/c++/10.3.1/cmath **** #endif
 451:/Library/DaisyToolchain/0.2.0/arm/arm-none-eabi/include/c++/10.3.1/cmath **** 
 452:/Library/DaisyToolchain/0.2.0/arm/arm-none-eabi/include/c++/10.3.1/cmath ****   template<typename _Tp>
 453:/Library/DaisyToolchain/0.2.0/arm/arm-none-eabi/include/c++/10.3.1/cmath ****     inline _GLIBCXX_CONSTEXPR
 454:/Library/DaisyToolchain/0.2.0/arm/arm-none-eabi/include/c++/10.3.1/cmath ****     typename __gnu_cxx::__enable_if<__is_integer<_Tp>::__value, 
 455:/Library/DaisyToolchain/0.2.0/arm/arm-none-eabi/include/c++/10.3.1/cmath ****                                     double>::__type
 456:/Library/DaisyToolchain/0.2.0/arm/arm-none-eabi/include/c++/10.3.1/cmath ****     sinh(_Tp __x)
 457:/Library/DaisyToolchain/0.2.0/arm/arm-none-eabi/include/c++/10.3.1/cmath ****     { return __builtin_sinh(__x); }
 458:/Library/DaisyToolchain/0.2.0/arm/arm-none-eabi/include/c++/10.3.1/cmath **** 
ARM GAS  /var/folders/tn/k4r6j7b53kv6zg3nk3m4krpm0000gp/T//cce5pTHt.s 			page 43


 459:/Library/DaisyToolchain/0.2.0/arm/arm-none-eabi/include/c++/10.3.1/cmath ****   using ::sqrt;
 460:/Library/DaisyToolchain/0.2.0/arm/arm-none-eabi/include/c++/10.3.1/cmath **** 
 461:/Library/DaisyToolchain/0.2.0/arm/arm-none-eabi/include/c++/10.3.1/cmath **** #ifndef __CORRECT_ISO_CPP_MATH_H_PROTO
 462:/Library/DaisyToolchain/0.2.0/arm/arm-none-eabi/include/c++/10.3.1/cmath ****   inline _GLIBCXX_CONSTEXPR float
 463:/Library/DaisyToolchain/0.2.0/arm/arm-none-eabi/include/c++/10.3.1/cmath ****   sqrt(float __x)
 464:/Library/DaisyToolchain/0.2.0/arm/arm-none-eabi/include/c++/10.3.1/cmath ****   { return __builtin_sqrtf(__x); }
 465:/Library/DaisyToolchain/0.2.0/arm/arm-none-eabi/include/c++/10.3.1/cmath **** 
 466:/Library/DaisyToolchain/0.2.0/arm/arm-none-eabi/include/c++/10.3.1/cmath ****   inline _GLIBCXX_CONSTEXPR long double
 467:/Library/DaisyToolchain/0.2.0/arm/arm-none-eabi/include/c++/10.3.1/cmath ****   sqrt(long double __x)
 468:/Library/DaisyToolchain/0.2.0/arm/arm-none-eabi/include/c++/10.3.1/cmath ****   { return __builtin_sqrtl(__x); }
 469:/Library/DaisyToolchain/0.2.0/arm/arm-none-eabi/include/c++/10.3.1/cmath **** #endif
 470:/Library/DaisyToolchain/0.2.0/arm/arm-none-eabi/include/c++/10.3.1/cmath **** 
 471:/Library/DaisyToolchain/0.2.0/arm/arm-none-eabi/include/c++/10.3.1/cmath ****   template<typename _Tp>
 472:/Library/DaisyToolchain/0.2.0/arm/arm-none-eabi/include/c++/10.3.1/cmath ****     inline _GLIBCXX_CONSTEXPR
 473:/Library/DaisyToolchain/0.2.0/arm/arm-none-eabi/include/c++/10.3.1/cmath ****     typename __gnu_cxx::__enable_if<__is_integer<_Tp>::__value, 
 474:/Library/DaisyToolchain/0.2.0/arm/arm-none-eabi/include/c++/10.3.1/cmath ****                                     double>::__type
 475:/Library/DaisyToolchain/0.2.0/arm/arm-none-eabi/include/c++/10.3.1/cmath ****     sqrt(_Tp __x)
 476:/Library/DaisyToolchain/0.2.0/arm/arm-none-eabi/include/c++/10.3.1/cmath ****     { return __builtin_sqrt(__x); }
 477:/Library/DaisyToolchain/0.2.0/arm/arm-none-eabi/include/c++/10.3.1/cmath **** 
 478:/Library/DaisyToolchain/0.2.0/arm/arm-none-eabi/include/c++/10.3.1/cmath ****   using ::tan;
 479:/Library/DaisyToolchain/0.2.0/arm/arm-none-eabi/include/c++/10.3.1/cmath **** 
 480:/Library/DaisyToolchain/0.2.0/arm/arm-none-eabi/include/c++/10.3.1/cmath **** #ifndef __CORRECT_ISO_CPP_MATH_H_PROTO
 481:/Library/DaisyToolchain/0.2.0/arm/arm-none-eabi/include/c++/10.3.1/cmath ****   inline _GLIBCXX_CONSTEXPR float
 482:/Library/DaisyToolchain/0.2.0/arm/arm-none-eabi/include/c++/10.3.1/cmath ****   tan(float __x)
 483:/Library/DaisyToolchain/0.2.0/arm/arm-none-eabi/include/c++/10.3.1/cmath ****   { return __builtin_tanf(__x); }
 484:/Library/DaisyToolchain/0.2.0/arm/arm-none-eabi/include/c++/10.3.1/cmath **** 
 485:/Library/DaisyToolchain/0.2.0/arm/arm-none-eabi/include/c++/10.3.1/cmath ****   inline _GLIBCXX_CONSTEXPR long double
 486:/Library/DaisyToolchain/0.2.0/arm/arm-none-eabi/include/c++/10.3.1/cmath ****   tan(long double __x)
 487:/Library/DaisyToolchain/0.2.0/arm/arm-none-eabi/include/c++/10.3.1/cmath ****   { return __builtin_tanl(__x); }
 488:/Library/DaisyToolchain/0.2.0/arm/arm-none-eabi/include/c++/10.3.1/cmath **** #endif
 489:/Library/DaisyToolchain/0.2.0/arm/arm-none-eabi/include/c++/10.3.1/cmath **** 
 490:/Library/DaisyToolchain/0.2.0/arm/arm-none-eabi/include/c++/10.3.1/cmath ****   template<typename _Tp>
 491:/Library/DaisyToolchain/0.2.0/arm/arm-none-eabi/include/c++/10.3.1/cmath ****     inline _GLIBCXX_CONSTEXPR
 492:/Library/DaisyToolchain/0.2.0/arm/arm-none-eabi/include/c++/10.3.1/cmath ****     typename __gnu_cxx::__enable_if<__is_integer<_Tp>::__value, 
 493:/Library/DaisyToolchain/0.2.0/arm/arm-none-eabi/include/c++/10.3.1/cmath ****                                     double>::__type
 494:/Library/DaisyToolchain/0.2.0/arm/arm-none-eabi/include/c++/10.3.1/cmath ****     tan(_Tp __x)
 495:/Library/DaisyToolchain/0.2.0/arm/arm-none-eabi/include/c++/10.3.1/cmath ****     { return __builtin_tan(__x); }
 496:/Library/DaisyToolchain/0.2.0/arm/arm-none-eabi/include/c++/10.3.1/cmath **** 
 497:/Library/DaisyToolchain/0.2.0/arm/arm-none-eabi/include/c++/10.3.1/cmath ****   using ::tanh;
 498:/Library/DaisyToolchain/0.2.0/arm/arm-none-eabi/include/c++/10.3.1/cmath **** 
 499:/Library/DaisyToolchain/0.2.0/arm/arm-none-eabi/include/c++/10.3.1/cmath **** #ifndef __CORRECT_ISO_CPP_MATH_H_PROTO
 500:/Library/DaisyToolchain/0.2.0/arm/arm-none-eabi/include/c++/10.3.1/cmath ****   inline _GLIBCXX_CONSTEXPR float
 501:/Library/DaisyToolchain/0.2.0/arm/arm-none-eabi/include/c++/10.3.1/cmath ****   tanh(float __x)
 900              		.loc 17 501 3 view .LVU224
 901              	.LBB627:
 502:/Library/DaisyToolchain/0.2.0/arm/arm-none-eabi/include/c++/10.3.1/cmath ****   { return __builtin_tanhf(__x); }
 902              		.loc 17 502 5 view .LVU225
 903              	.LBE627:
 904              	.LBE626:
 905              		.loc 18 48 1 is_stmt 0 view .LVU226
 906 0040 BDEC028B 		vldm	sp!, {d8}
 907              		.cfi_remember_state
 908              		.cfi_restore 80
 909              		.cfi_restore 81
 910              		.cfi_def_cfa_offset 8
 911 0044 BDE80840 		pop	{r3, lr}
 912              		.cfi_restore 14
ARM GAS  /var/folders/tn/k4r6j7b53kv6zg3nk3m4krpm0000gp/T//cce5pTHt.s 			page 44


 913              		.cfi_restore 3
 914              		.cfi_def_cfa_offset 0
 915              	.LBB629:
 916              	.LBB628:
 917              		.loc 17 502 27 view .LVU227
 918 0048 FFF7FEBF 		b	tanhf
 919              	.LVL47:
 920              	.L38:
 921              		.cfi_restore_state
 922              		.loc 17 502 27 view .LVU228
 923              	.LBE628:
 924              	.LBE629:
  39:library/effects/Saturation.cpp ****         case ARCTAN_SATURATION: return std::atan(x);
 925              		.loc 18 39 9 is_stmt 1 view .LVU229
  39:library/effects/Saturation.cpp ****         case ARCTAN_SATURATION: return std::atan(x);
 926              		.loc 18 39 33 view .LVU230
 927              	.LBB630:
 928              	.LBI630:
 125:/Library/DaisyToolchain/0.2.0/arm/arm-none-eabi/include/c++/10.3.1/cmath ****   { return __builtin_atanf(__x); }
 929              		.loc 17 125 3 view .LVU231
 930              	.LBB631:
 126:/Library/DaisyToolchain/0.2.0/arm/arm-none-eabi/include/c++/10.3.1/cmath **** 
 931              		.loc 17 126 5 view .LVU232
 932              	.LBE631:
 933              	.LBE630:
 934              		.loc 18 48 1 is_stmt 0 view .LVU233
 935 004c BDEC028B 		vldm	sp!, {d8}
 936              		.cfi_remember_state
 937              		.cfi_restore 80
 938              		.cfi_restore 81
 939              		.cfi_def_cfa_offset 8
 940 0050 BDE80840 		pop	{r3, lr}
 941              		.cfi_restore 14
 942              		.cfi_restore 3
 943              		.cfi_def_cfa_offset 0
 944              	.LBB633:
 945              	.LBB632:
 126:/Library/DaisyToolchain/0.2.0/arm/arm-none-eabi/include/c++/10.3.1/cmath **** 
 946              		.loc 17 126 27 view .LVU234
 947 0054 FFF7FEBF 		b	atanf
 948              	.LVL48:
 949              	.L37:
 950              		.cfi_restore_state
 126:/Library/DaisyToolchain/0.2.0/arm/arm-none-eabi/include/c++/10.3.1/cmath **** 
 951              		.loc 17 126 27 view .LVU235
 952              	.LBE632:
 953              	.LBE633:
  40:library/effects/Saturation.cpp ****         case CUBIC_SATURATION: return x - (1.0f / 3.0f) * x * x * x;
 954              		.loc 18 40 9 is_stmt 1 view .LVU236
  40:library/effects/Saturation.cpp ****         case CUBIC_SATURATION: return x - (1.0f / 3.0f) * x * x * x;
 955              		.loc 18 40 32 view .LVU237
  40:library/effects/Saturation.cpp ****         case CUBIC_SATURATION: return x - (1.0f / 3.0f) * x * x * x;
 956              		.loc 18 40 57 is_stmt 0 view .LVU238
 957 0058 DFED277A 		vldr.32	s15, .L61
 958 005c 60EE277A 		vmul.f32	s15, s0, s15
 959              		.loc 18 48 1 view .LVU239
 960 0060 BDEC028B 		vldm	sp!, {d8}
ARM GAS  /var/folders/tn/k4r6j7b53kv6zg3nk3m4krpm0000gp/T//cce5pTHt.s 			page 45


 961              		.cfi_remember_state
 962              		.cfi_restore 80
 963              		.cfi_restore 81
 964              		.cfi_def_cfa_offset 8
  40:library/effects/Saturation.cpp ****         case CUBIC_SATURATION: return x - (1.0f / 3.0f) * x * x * x;
 965              		.loc 18 40 67 view .LVU240
 966 0064 60EE677A 		vnmul.f32	s15, s0, s15
 967 0068 A7EE800A 		vfma.f32	s0, s15, s0
 968              	.LVL49:
 969              		.loc 18 48 1 view .LVU241
 970 006c 08BD     		pop	{r3, pc}
 971              	.LVL50:
 972              	.L36:
 973              		.cfi_restore_state
  41:library/effects/Saturation.cpp ****         case QUADRATIC_SATURATION: return (x > 1.0f) ? (2.0f - (1.0f / x)) : x; 
 974              		.loc 18 41 9 is_stmt 1 view .LVU242
  41:library/effects/Saturation.cpp ****         case QUADRATIC_SATURATION: return (x > 1.0f) ? (2.0f - (1.0f / x)) : x; 
 975              		.loc 18 41 36 view .LVU243
  41:library/effects/Saturation.cpp ****         case QUADRATIC_SATURATION: return (x > 1.0f) ? (2.0f - (1.0f / x)) : x; 
 976              		.loc 18 41 54 is_stmt 0 view .LVU244
 977 006e F7EE007A 		vmov.f32	s15, #1.0e+0
 978 0072 B4EEE70A 		vcmpe.f32	s0, s15
 979 0076 F1EE10FA 		vmrs	APSR_nzcv, FPSCR
 980 007a 2ADD     		ble	.L55
  41:library/effects/Saturation.cpp ****         case QUADRATIC_SATURATION: return (x > 1.0f) ? (2.0f - (1.0f / x)) : x; 
 981              		.loc 18 41 70 discriminator 1 view .LVU245
 982 007c 87EE807A 		vdiv.f32	s14, s15, s0
  41:library/effects/Saturation.cpp ****         case QUADRATIC_SATURATION: return (x > 1.0f) ? (2.0f - (1.0f / x)) : x; 
 983              		.loc 18 41 54 discriminator 1 view .LVU246
 984 0080 B0EE000A 		vmov.f32	s0, #2.0e+0
 985              	.LVL51:
  41:library/effects/Saturation.cpp ****         case QUADRATIC_SATURATION: return (x > 1.0f) ? (2.0f - (1.0f / x)) : x; 
 986              		.loc 18 41 54 discriminator 1 view .LVU247
 987 0084 30EE470A 		vsub.f32	s0, s0, s14
 988 0088 CCE7     		b	.L29
 989              	.LVL52:
 990              	.L35:
  42:library/effects/Saturation.cpp ****         case SINE_SATURATION: return std::sin(x);
 991              		.loc 18 42 9 is_stmt 1 view .LVU248
  42:library/effects/Saturation.cpp ****         case SINE_SATURATION: return std::sin(x);
 992              		.loc 18 42 31 view .LVU249
 993              	.LBB634:
 994              	.LBI634:
 425:/Library/DaisyToolchain/0.2.0/arm/arm-none-eabi/include/c++/10.3.1/cmath ****   { return __builtin_sinf(__x); }
 995              		.loc 17 425 3 view .LVU250
 996              	.LBB635:
 426:/Library/DaisyToolchain/0.2.0/arm/arm-none-eabi/include/c++/10.3.1/cmath **** 
 997              		.loc 17 426 5 view .LVU251
 998              	.LBE635:
 999              	.LBE634:
 1000              		.loc 18 48 1 is_stmt 0 view .LVU252
 1001 008a BDEC028B 		vldm	sp!, {d8}
 1002              		.cfi_remember_state
 1003              		.cfi_restore 80
 1004              		.cfi_restore 81
 1005              		.cfi_def_cfa_offset 8
 1006 008e BDE80840 		pop	{r3, lr}
ARM GAS  /var/folders/tn/k4r6j7b53kv6zg3nk3m4krpm0000gp/T//cce5pTHt.s 			page 46


 1007              		.cfi_restore 14
 1008              		.cfi_restore 3
 1009              		.cfi_def_cfa_offset 0
 1010              	.LBB637:
 1011              	.LBB636:
 426:/Library/DaisyToolchain/0.2.0/arm/arm-none-eabi/include/c++/10.3.1/cmath **** 
 1012              		.loc 17 426 26 view .LVU253
 1013 0092 FFF7FEBF 		b	sinf
 1014              	.LVL53:
 1015              	.L34:
 1016              		.cfi_restore_state
 426:/Library/DaisyToolchain/0.2.0/arm/arm-none-eabi/include/c++/10.3.1/cmath **** 
 1017              		.loc 17 426 26 view .LVU254
 1018              	.LBE636:
 1019              	.LBE637:
  43:library/effects/Saturation.cpp ****         case EXP_SATURATION: return 1 - exp(-std::fabs(x)) * (x < 0 ? -1 : 1); 
 1020              		.loc 18 43 9 is_stmt 1 view .LVU255
  43:library/effects/Saturation.cpp ****         case EXP_SATURATION: return 1 - exp(-std::fabs(x)) * (x < 0 ? -1 : 1); 
 1021              		.loc 18 43 30 view .LVU256
 1022              	.LBB638:
 1023              	.LBI638:
 241:/Library/DaisyToolchain/0.2.0/arm/arm-none-eabi/include/c++/10.3.1/cmath ****   { return __builtin_fabsf(__x); }
 1024              		.loc 17 241 3 view .LVU257
 1025              	.LBB639:
 242:/Library/DaisyToolchain/0.2.0/arm/arm-none-eabi/include/c++/10.3.1/cmath **** 
 1026              		.loc 17 242 5 view .LVU258
 242:/Library/DaisyToolchain/0.2.0/arm/arm-none-eabi/include/c++/10.3.1/cmath **** 
 1027              		.loc 17 242 5 is_stmt 0 view .LVU259
 1028              	.LBE639:
 1029              	.LBE638:
 1030              	.LBB641:
 1031              	.LBI641:
 222:/Library/DaisyToolchain/0.2.0/arm/arm-none-eabi/include/c++/10.3.1/cmath ****   { return __builtin_expf(__x); }
 1032              		.loc 17 222 3 is_stmt 1 view .LVU260
 1033              	.LBB642:
 223:/Library/DaisyToolchain/0.2.0/arm/arm-none-eabi/include/c++/10.3.1/cmath **** 
 1034              		.loc 17 223 5 view .LVU261
 1035              	.LBE642:
 1036              	.LBE641:
 1037              	.LBB644:
 1038              	.LBB640:
 242:/Library/DaisyToolchain/0.2.0/arm/arm-none-eabi/include/c++/10.3.1/cmath **** 
 1039              		.loc 17 242 31 is_stmt 0 view .LVU262
 1040 0096 B0EEC00A 		vabs.f32	s0, s0
 1041              	.LVL54:
 242:/Library/DaisyToolchain/0.2.0/arm/arm-none-eabi/include/c++/10.3.1/cmath **** 
 1042              		.loc 17 242 31 view .LVU263
 1043              	.LBE640:
 1044              	.LBE644:
 1045              	.LBB645:
 1046              	.LBB643:
 223:/Library/DaisyToolchain/0.2.0/arm/arm-none-eabi/include/c++/10.3.1/cmath **** 
 1047              		.loc 17 223 26 view .LVU264
 1048 009a B1EE400A 		vneg.f32	s0, s0
 1049              	.LVL55:
 223:/Library/DaisyToolchain/0.2.0/arm/arm-none-eabi/include/c++/10.3.1/cmath **** 
 1050              		.loc 17 223 26 view .LVU265
ARM GAS  /var/folders/tn/k4r6j7b53kv6zg3nk3m4krpm0000gp/T//cce5pTHt.s 			page 47


 1051 009e FFF7FEFF 		bl	expf
 1052              	.LVL56:
 223:/Library/DaisyToolchain/0.2.0/arm/arm-none-eabi/include/c++/10.3.1/cmath **** 
 1053              		.loc 17 223 26 view .LVU266
 1054              	.LBE643:
 1055              	.LBE645:
  43:library/effects/Saturation.cpp ****         case EXP_SATURATION: return 1 - exp(-std::fabs(x)) * (x < 0 ? -1 : 1); 
 1056              		.loc 18 43 60 view .LVU267
 1057 00a2 B5EEC08A 		vcmpe.f32	s16, #0
  43:library/effects/Saturation.cpp ****         case EXP_SATURATION: return 1 - exp(-std::fabs(x)) * (x < 0 ? -1 : 1); 
 1058              		.loc 18 43 77 view .LVU268
 1059 00a6 F7EE007A 		vmov.f32	s15, #1.0e+0
  43:library/effects/Saturation.cpp ****         case EXP_SATURATION: return 1 - exp(-std::fabs(x)) * (x < 0 ? -1 : 1); 
 1060              		.loc 18 43 60 view .LVU269
 1061 00aa F1EE10FA 		vmrs	APSR_nzcv, FPSCR
 1062              		.loc 18 48 1 view .LVU270
 1063 00ae BDEC028B 		vldm	sp!, {d8}
 1064              		.cfi_remember_state
 1065              		.cfi_restore 80
 1066              		.cfi_restore 81
 1067              		.cfi_def_cfa_offset 8
 1068              	.LVL57:
 1069              		.loc 18 48 1 view .LVU271
 1070 00b2 48BF     		it	mi
 1071 00b4 B1EE400A 		vnegmi.f32	s0, s0
  43:library/effects/Saturation.cpp ****         case EXP_SATURATION: return 1 - exp(-std::fabs(x)) * (x < 0 ? -1 : 1); 
 1072              		.loc 18 43 77 view .LVU272
 1073 00b8 37EEC00A 		vsub.f32	s0, s15, s0
 1074              		.loc 18 48 1 view .LVU273
 1075 00bc 08BD     		pop	{r3, pc}
 1076              	.LVL58:
 1077              	.L33:
 1078              		.cfi_restore_state
  44:library/effects/Saturation.cpp ****         case HARD_CLIP: return (std::max(-1.0f, std::min(1.0f, x)))*.8f; 
 1079              		.loc 18 44 9 is_stmt 1 view .LVU274
  44:library/effects/Saturation.cpp ****         case HARD_CLIP: return (std::max(-1.0f, std::min(1.0f, x)))*.8f; 
 1080              		.loc 18 44 25 view .LVU275
 1081              	.LBB646:
 1082              	.LBI646:
 1083              		.file 19 "/Library/DaisyToolchain/0.2.0/arm/arm-none-eabi/include/c++/10.3.1/bits/stl_algobase.h"
   1:/Library/DaisyToolchain/0.2.0/arm/arm-none-eabi/include/c++/10.3.1/bits/stl_algobase.h **** // Core algorithmic facilities -*- C++ -*-
   2:/Library/DaisyToolchain/0.2.0/arm/arm-none-eabi/include/c++/10.3.1/bits/stl_algobase.h **** 
   3:/Library/DaisyToolchain/0.2.0/arm/arm-none-eabi/include/c++/10.3.1/bits/stl_algobase.h **** // Copyright (C) 2001-2020 Free Software Foundation, Inc.
   4:/Library/DaisyToolchain/0.2.0/arm/arm-none-eabi/include/c++/10.3.1/bits/stl_algobase.h **** //
   5:/Library/DaisyToolchain/0.2.0/arm/arm-none-eabi/include/c++/10.3.1/bits/stl_algobase.h **** // This file is part of the GNU ISO C++ Library.  This library is free
   6:/Library/DaisyToolchain/0.2.0/arm/arm-none-eabi/include/c++/10.3.1/bits/stl_algobase.h **** // software; you can redistribute it and/or modify it under the
   7:/Library/DaisyToolchain/0.2.0/arm/arm-none-eabi/include/c++/10.3.1/bits/stl_algobase.h **** // terms of the GNU General Public License as published by the
   8:/Library/DaisyToolchain/0.2.0/arm/arm-none-eabi/include/c++/10.3.1/bits/stl_algobase.h **** // Free Software Foundation; either version 3, or (at your option)
   9:/Library/DaisyToolchain/0.2.0/arm/arm-none-eabi/include/c++/10.3.1/bits/stl_algobase.h **** // any later version.
  10:/Library/DaisyToolchain/0.2.0/arm/arm-none-eabi/include/c++/10.3.1/bits/stl_algobase.h **** 
  11:/Library/DaisyToolchain/0.2.0/arm/arm-none-eabi/include/c++/10.3.1/bits/stl_algobase.h **** // This library is distributed in the hope that it will be useful,
  12:/Library/DaisyToolchain/0.2.0/arm/arm-none-eabi/include/c++/10.3.1/bits/stl_algobase.h **** // but WITHOUT ANY WARRANTY; without even the implied warranty of
  13:/Library/DaisyToolchain/0.2.0/arm/arm-none-eabi/include/c++/10.3.1/bits/stl_algobase.h **** // MERCHANTABILITY or FITNESS FOR A PARTICULAR PURPOSE.  See the
  14:/Library/DaisyToolchain/0.2.0/arm/arm-none-eabi/include/c++/10.3.1/bits/stl_algobase.h **** // GNU General Public License for more details.
  15:/Library/DaisyToolchain/0.2.0/arm/arm-none-eabi/include/c++/10.3.1/bits/stl_algobase.h **** 
  16:/Library/DaisyToolchain/0.2.0/arm/arm-none-eabi/include/c++/10.3.1/bits/stl_algobase.h **** // Under Section 7 of GPL version 3, you are granted additional
  17:/Library/DaisyToolchain/0.2.0/arm/arm-none-eabi/include/c++/10.3.1/bits/stl_algobase.h **** // permissions described in the GCC Runtime Library Exception, version
ARM GAS  /var/folders/tn/k4r6j7b53kv6zg3nk3m4krpm0000gp/T//cce5pTHt.s 			page 48


  18:/Library/DaisyToolchain/0.2.0/arm/arm-none-eabi/include/c++/10.3.1/bits/stl_algobase.h **** // 3.1, as published by the Free Software Foundation.
  19:/Library/DaisyToolchain/0.2.0/arm/arm-none-eabi/include/c++/10.3.1/bits/stl_algobase.h **** 
  20:/Library/DaisyToolchain/0.2.0/arm/arm-none-eabi/include/c++/10.3.1/bits/stl_algobase.h **** // You should have received a copy of the GNU General Public License and
  21:/Library/DaisyToolchain/0.2.0/arm/arm-none-eabi/include/c++/10.3.1/bits/stl_algobase.h **** // a copy of the GCC Runtime Library Exception along with this program;
  22:/Library/DaisyToolchain/0.2.0/arm/arm-none-eabi/include/c++/10.3.1/bits/stl_algobase.h **** // see the files COPYING3 and COPYING.RUNTIME respectively.  If not, see
  23:/Library/DaisyToolchain/0.2.0/arm/arm-none-eabi/include/c++/10.3.1/bits/stl_algobase.h **** // <http://www.gnu.org/licenses/>.
  24:/Library/DaisyToolchain/0.2.0/arm/arm-none-eabi/include/c++/10.3.1/bits/stl_algobase.h **** 
  25:/Library/DaisyToolchain/0.2.0/arm/arm-none-eabi/include/c++/10.3.1/bits/stl_algobase.h **** /*
  26:/Library/DaisyToolchain/0.2.0/arm/arm-none-eabi/include/c++/10.3.1/bits/stl_algobase.h ****  *
  27:/Library/DaisyToolchain/0.2.0/arm/arm-none-eabi/include/c++/10.3.1/bits/stl_algobase.h ****  * Copyright (c) 1994
  28:/Library/DaisyToolchain/0.2.0/arm/arm-none-eabi/include/c++/10.3.1/bits/stl_algobase.h ****  * Hewlett-Packard Company
  29:/Library/DaisyToolchain/0.2.0/arm/arm-none-eabi/include/c++/10.3.1/bits/stl_algobase.h ****  *
  30:/Library/DaisyToolchain/0.2.0/arm/arm-none-eabi/include/c++/10.3.1/bits/stl_algobase.h ****  * Permission to use, copy, modify, distribute and sell this software
  31:/Library/DaisyToolchain/0.2.0/arm/arm-none-eabi/include/c++/10.3.1/bits/stl_algobase.h ****  * and its documentation for any purpose is hereby granted without fee,
  32:/Library/DaisyToolchain/0.2.0/arm/arm-none-eabi/include/c++/10.3.1/bits/stl_algobase.h ****  * provided that the above copyright notice appear in all copies and
  33:/Library/DaisyToolchain/0.2.0/arm/arm-none-eabi/include/c++/10.3.1/bits/stl_algobase.h ****  * that both that copyright notice and this permission notice appear
  34:/Library/DaisyToolchain/0.2.0/arm/arm-none-eabi/include/c++/10.3.1/bits/stl_algobase.h ****  * in supporting documentation.  Hewlett-Packard Company makes no
  35:/Library/DaisyToolchain/0.2.0/arm/arm-none-eabi/include/c++/10.3.1/bits/stl_algobase.h ****  * representations about the suitability of this software for any
  36:/Library/DaisyToolchain/0.2.0/arm/arm-none-eabi/include/c++/10.3.1/bits/stl_algobase.h ****  * purpose.  It is provided "as is" without express or implied warranty.
  37:/Library/DaisyToolchain/0.2.0/arm/arm-none-eabi/include/c++/10.3.1/bits/stl_algobase.h ****  *
  38:/Library/DaisyToolchain/0.2.0/arm/arm-none-eabi/include/c++/10.3.1/bits/stl_algobase.h ****  *
  39:/Library/DaisyToolchain/0.2.0/arm/arm-none-eabi/include/c++/10.3.1/bits/stl_algobase.h ****  * Copyright (c) 1996-1998
  40:/Library/DaisyToolchain/0.2.0/arm/arm-none-eabi/include/c++/10.3.1/bits/stl_algobase.h ****  * Silicon Graphics Computer Systems, Inc.
  41:/Library/DaisyToolchain/0.2.0/arm/arm-none-eabi/include/c++/10.3.1/bits/stl_algobase.h ****  *
  42:/Library/DaisyToolchain/0.2.0/arm/arm-none-eabi/include/c++/10.3.1/bits/stl_algobase.h ****  * Permission to use, copy, modify, distribute and sell this software
  43:/Library/DaisyToolchain/0.2.0/arm/arm-none-eabi/include/c++/10.3.1/bits/stl_algobase.h ****  * and its documentation for any purpose is hereby granted without fee,
  44:/Library/DaisyToolchain/0.2.0/arm/arm-none-eabi/include/c++/10.3.1/bits/stl_algobase.h ****  * provided that the above copyright notice appear in all copies and
  45:/Library/DaisyToolchain/0.2.0/arm/arm-none-eabi/include/c++/10.3.1/bits/stl_algobase.h ****  * that both that copyright notice and this permission notice appear
  46:/Library/DaisyToolchain/0.2.0/arm/arm-none-eabi/include/c++/10.3.1/bits/stl_algobase.h ****  * in supporting documentation.  Silicon Graphics makes no
  47:/Library/DaisyToolchain/0.2.0/arm/arm-none-eabi/include/c++/10.3.1/bits/stl_algobase.h ****  * representations about the suitability of this software for any
  48:/Library/DaisyToolchain/0.2.0/arm/arm-none-eabi/include/c++/10.3.1/bits/stl_algobase.h ****  * purpose.  It is provided "as is" without express or implied warranty.
  49:/Library/DaisyToolchain/0.2.0/arm/arm-none-eabi/include/c++/10.3.1/bits/stl_algobase.h ****  */
  50:/Library/DaisyToolchain/0.2.0/arm/arm-none-eabi/include/c++/10.3.1/bits/stl_algobase.h **** 
  51:/Library/DaisyToolchain/0.2.0/arm/arm-none-eabi/include/c++/10.3.1/bits/stl_algobase.h **** /** @file bits/stl_algobase.h
  52:/Library/DaisyToolchain/0.2.0/arm/arm-none-eabi/include/c++/10.3.1/bits/stl_algobase.h ****  *  This is an internal header file, included by other library headers.
  53:/Library/DaisyToolchain/0.2.0/arm/arm-none-eabi/include/c++/10.3.1/bits/stl_algobase.h ****  *  Do not attempt to use it directly. @headername{algorithm}
  54:/Library/DaisyToolchain/0.2.0/arm/arm-none-eabi/include/c++/10.3.1/bits/stl_algobase.h ****  */
  55:/Library/DaisyToolchain/0.2.0/arm/arm-none-eabi/include/c++/10.3.1/bits/stl_algobase.h **** 
  56:/Library/DaisyToolchain/0.2.0/arm/arm-none-eabi/include/c++/10.3.1/bits/stl_algobase.h **** #ifndef _STL_ALGOBASE_H
  57:/Library/DaisyToolchain/0.2.0/arm/arm-none-eabi/include/c++/10.3.1/bits/stl_algobase.h **** #define _STL_ALGOBASE_H 1
  58:/Library/DaisyToolchain/0.2.0/arm/arm-none-eabi/include/c++/10.3.1/bits/stl_algobase.h **** 
  59:/Library/DaisyToolchain/0.2.0/arm/arm-none-eabi/include/c++/10.3.1/bits/stl_algobase.h **** #include <bits/c++config.h>
  60:/Library/DaisyToolchain/0.2.0/arm/arm-none-eabi/include/c++/10.3.1/bits/stl_algobase.h **** #include <bits/functexcept.h>
  61:/Library/DaisyToolchain/0.2.0/arm/arm-none-eabi/include/c++/10.3.1/bits/stl_algobase.h **** #include <bits/cpp_type_traits.h>
  62:/Library/DaisyToolchain/0.2.0/arm/arm-none-eabi/include/c++/10.3.1/bits/stl_algobase.h **** #include <ext/type_traits.h>
  63:/Library/DaisyToolchain/0.2.0/arm/arm-none-eabi/include/c++/10.3.1/bits/stl_algobase.h **** #include <ext/numeric_traits.h>
  64:/Library/DaisyToolchain/0.2.0/arm/arm-none-eabi/include/c++/10.3.1/bits/stl_algobase.h **** #include <bits/stl_pair.h>
  65:/Library/DaisyToolchain/0.2.0/arm/arm-none-eabi/include/c++/10.3.1/bits/stl_algobase.h **** #include <bits/stl_iterator_base_types.h>
  66:/Library/DaisyToolchain/0.2.0/arm/arm-none-eabi/include/c++/10.3.1/bits/stl_algobase.h **** #include <bits/stl_iterator_base_funcs.h>
  67:/Library/DaisyToolchain/0.2.0/arm/arm-none-eabi/include/c++/10.3.1/bits/stl_algobase.h **** #include <bits/stl_iterator.h>
  68:/Library/DaisyToolchain/0.2.0/arm/arm-none-eabi/include/c++/10.3.1/bits/stl_algobase.h **** #include <bits/concept_check.h>
  69:/Library/DaisyToolchain/0.2.0/arm/arm-none-eabi/include/c++/10.3.1/bits/stl_algobase.h **** #include <debug/debug.h>
  70:/Library/DaisyToolchain/0.2.0/arm/arm-none-eabi/include/c++/10.3.1/bits/stl_algobase.h **** #include <bits/move.h> // For std::swap
  71:/Library/DaisyToolchain/0.2.0/arm/arm-none-eabi/include/c++/10.3.1/bits/stl_algobase.h **** #include <bits/predefined_ops.h>
  72:/Library/DaisyToolchain/0.2.0/arm/arm-none-eabi/include/c++/10.3.1/bits/stl_algobase.h **** #if __cplusplus >= 201103L
  73:/Library/DaisyToolchain/0.2.0/arm/arm-none-eabi/include/c++/10.3.1/bits/stl_algobase.h **** # include <type_traits>
  74:/Library/DaisyToolchain/0.2.0/arm/arm-none-eabi/include/c++/10.3.1/bits/stl_algobase.h **** #endif
ARM GAS  /var/folders/tn/k4r6j7b53kv6zg3nk3m4krpm0000gp/T//cce5pTHt.s 			page 49


  75:/Library/DaisyToolchain/0.2.0/arm/arm-none-eabi/include/c++/10.3.1/bits/stl_algobase.h **** #if __cplusplus > 201703L
  76:/Library/DaisyToolchain/0.2.0/arm/arm-none-eabi/include/c++/10.3.1/bits/stl_algobase.h **** # include <compare>
  77:/Library/DaisyToolchain/0.2.0/arm/arm-none-eabi/include/c++/10.3.1/bits/stl_algobase.h **** #endif
  78:/Library/DaisyToolchain/0.2.0/arm/arm-none-eabi/include/c++/10.3.1/bits/stl_algobase.h **** 
  79:/Library/DaisyToolchain/0.2.0/arm/arm-none-eabi/include/c++/10.3.1/bits/stl_algobase.h **** namespace std _GLIBCXX_VISIBILITY(default)
  80:/Library/DaisyToolchain/0.2.0/arm/arm-none-eabi/include/c++/10.3.1/bits/stl_algobase.h **** {
  81:/Library/DaisyToolchain/0.2.0/arm/arm-none-eabi/include/c++/10.3.1/bits/stl_algobase.h **** _GLIBCXX_BEGIN_NAMESPACE_VERSION
  82:/Library/DaisyToolchain/0.2.0/arm/arm-none-eabi/include/c++/10.3.1/bits/stl_algobase.h **** 
  83:/Library/DaisyToolchain/0.2.0/arm/arm-none-eabi/include/c++/10.3.1/bits/stl_algobase.h ****   /*
  84:/Library/DaisyToolchain/0.2.0/arm/arm-none-eabi/include/c++/10.3.1/bits/stl_algobase.h ****    * A constexpr wrapper for __builtin_memcmp.
  85:/Library/DaisyToolchain/0.2.0/arm/arm-none-eabi/include/c++/10.3.1/bits/stl_algobase.h ****    * @param __num The number of elements of type _Tp (not bytes).
  86:/Library/DaisyToolchain/0.2.0/arm/arm-none-eabi/include/c++/10.3.1/bits/stl_algobase.h ****    */
  87:/Library/DaisyToolchain/0.2.0/arm/arm-none-eabi/include/c++/10.3.1/bits/stl_algobase.h ****   template<typename _Tp, typename _Up>
  88:/Library/DaisyToolchain/0.2.0/arm/arm-none-eabi/include/c++/10.3.1/bits/stl_algobase.h ****     _GLIBCXX14_CONSTEXPR
  89:/Library/DaisyToolchain/0.2.0/arm/arm-none-eabi/include/c++/10.3.1/bits/stl_algobase.h ****     inline int
  90:/Library/DaisyToolchain/0.2.0/arm/arm-none-eabi/include/c++/10.3.1/bits/stl_algobase.h ****     __memcmp(const _Tp* __first1, const _Up* __first2, size_t __num)
  91:/Library/DaisyToolchain/0.2.0/arm/arm-none-eabi/include/c++/10.3.1/bits/stl_algobase.h ****     {
  92:/Library/DaisyToolchain/0.2.0/arm/arm-none-eabi/include/c++/10.3.1/bits/stl_algobase.h **** #if __cplusplus >= 201103L
  93:/Library/DaisyToolchain/0.2.0/arm/arm-none-eabi/include/c++/10.3.1/bits/stl_algobase.h ****       static_assert(sizeof(_Tp) == sizeof(_Up), "can be compared with memcmp");
  94:/Library/DaisyToolchain/0.2.0/arm/arm-none-eabi/include/c++/10.3.1/bits/stl_algobase.h **** #endif
  95:/Library/DaisyToolchain/0.2.0/arm/arm-none-eabi/include/c++/10.3.1/bits/stl_algobase.h **** #ifdef __cpp_lib_is_constant_evaluated
  96:/Library/DaisyToolchain/0.2.0/arm/arm-none-eabi/include/c++/10.3.1/bits/stl_algobase.h ****       if (std::is_constant_evaluated())
  97:/Library/DaisyToolchain/0.2.0/arm/arm-none-eabi/include/c++/10.3.1/bits/stl_algobase.h **** 	{
  98:/Library/DaisyToolchain/0.2.0/arm/arm-none-eabi/include/c++/10.3.1/bits/stl_algobase.h **** 	  for(; __num > 0; ++__first1, ++__first2, --__num)
  99:/Library/DaisyToolchain/0.2.0/arm/arm-none-eabi/include/c++/10.3.1/bits/stl_algobase.h **** 	    if (*__first1 != *__first2)
 100:/Library/DaisyToolchain/0.2.0/arm/arm-none-eabi/include/c++/10.3.1/bits/stl_algobase.h **** 	      return *__first1 < *__first2 ? -1 : 1;
 101:/Library/DaisyToolchain/0.2.0/arm/arm-none-eabi/include/c++/10.3.1/bits/stl_algobase.h **** 	  return 0;
 102:/Library/DaisyToolchain/0.2.0/arm/arm-none-eabi/include/c++/10.3.1/bits/stl_algobase.h **** 	}
 103:/Library/DaisyToolchain/0.2.0/arm/arm-none-eabi/include/c++/10.3.1/bits/stl_algobase.h ****       else
 104:/Library/DaisyToolchain/0.2.0/arm/arm-none-eabi/include/c++/10.3.1/bits/stl_algobase.h **** #endif
 105:/Library/DaisyToolchain/0.2.0/arm/arm-none-eabi/include/c++/10.3.1/bits/stl_algobase.h **** 	return __builtin_memcmp(__first1, __first2, sizeof(_Tp) * __num);
 106:/Library/DaisyToolchain/0.2.0/arm/arm-none-eabi/include/c++/10.3.1/bits/stl_algobase.h ****     }
 107:/Library/DaisyToolchain/0.2.0/arm/arm-none-eabi/include/c++/10.3.1/bits/stl_algobase.h **** 
 108:/Library/DaisyToolchain/0.2.0/arm/arm-none-eabi/include/c++/10.3.1/bits/stl_algobase.h **** #if __cplusplus < 201103L
 109:/Library/DaisyToolchain/0.2.0/arm/arm-none-eabi/include/c++/10.3.1/bits/stl_algobase.h ****   // See http://gcc.gnu.org/ml/libstdc++/2004-08/msg00167.html: in a
 110:/Library/DaisyToolchain/0.2.0/arm/arm-none-eabi/include/c++/10.3.1/bits/stl_algobase.h ****   // nutshell, we are partially implementing the resolution of DR 187,
 111:/Library/DaisyToolchain/0.2.0/arm/arm-none-eabi/include/c++/10.3.1/bits/stl_algobase.h ****   // when it's safe, i.e., the value_types are equal.
 112:/Library/DaisyToolchain/0.2.0/arm/arm-none-eabi/include/c++/10.3.1/bits/stl_algobase.h ****   template<bool _BoolType>
 113:/Library/DaisyToolchain/0.2.0/arm/arm-none-eabi/include/c++/10.3.1/bits/stl_algobase.h ****     struct __iter_swap
 114:/Library/DaisyToolchain/0.2.0/arm/arm-none-eabi/include/c++/10.3.1/bits/stl_algobase.h ****     {
 115:/Library/DaisyToolchain/0.2.0/arm/arm-none-eabi/include/c++/10.3.1/bits/stl_algobase.h ****       template<typename _ForwardIterator1, typename _ForwardIterator2>
 116:/Library/DaisyToolchain/0.2.0/arm/arm-none-eabi/include/c++/10.3.1/bits/stl_algobase.h **** 	static void
 117:/Library/DaisyToolchain/0.2.0/arm/arm-none-eabi/include/c++/10.3.1/bits/stl_algobase.h **** 	iter_swap(_ForwardIterator1 __a, _ForwardIterator2 __b)
 118:/Library/DaisyToolchain/0.2.0/arm/arm-none-eabi/include/c++/10.3.1/bits/stl_algobase.h **** 	{
 119:/Library/DaisyToolchain/0.2.0/arm/arm-none-eabi/include/c++/10.3.1/bits/stl_algobase.h **** 	  typedef typename iterator_traits<_ForwardIterator1>::value_type
 120:/Library/DaisyToolchain/0.2.0/arm/arm-none-eabi/include/c++/10.3.1/bits/stl_algobase.h **** 	    _ValueType1;
 121:/Library/DaisyToolchain/0.2.0/arm/arm-none-eabi/include/c++/10.3.1/bits/stl_algobase.h **** 	  _ValueType1 __tmp = *__a;
 122:/Library/DaisyToolchain/0.2.0/arm/arm-none-eabi/include/c++/10.3.1/bits/stl_algobase.h **** 	  *__a = *__b;
 123:/Library/DaisyToolchain/0.2.0/arm/arm-none-eabi/include/c++/10.3.1/bits/stl_algobase.h **** 	  *__b = __tmp;
 124:/Library/DaisyToolchain/0.2.0/arm/arm-none-eabi/include/c++/10.3.1/bits/stl_algobase.h **** 	}
 125:/Library/DaisyToolchain/0.2.0/arm/arm-none-eabi/include/c++/10.3.1/bits/stl_algobase.h ****     };
 126:/Library/DaisyToolchain/0.2.0/arm/arm-none-eabi/include/c++/10.3.1/bits/stl_algobase.h **** 
 127:/Library/DaisyToolchain/0.2.0/arm/arm-none-eabi/include/c++/10.3.1/bits/stl_algobase.h ****   template<>
 128:/Library/DaisyToolchain/0.2.0/arm/arm-none-eabi/include/c++/10.3.1/bits/stl_algobase.h ****     struct __iter_swap<true>
 129:/Library/DaisyToolchain/0.2.0/arm/arm-none-eabi/include/c++/10.3.1/bits/stl_algobase.h ****     {
 130:/Library/DaisyToolchain/0.2.0/arm/arm-none-eabi/include/c++/10.3.1/bits/stl_algobase.h ****       template<typename _ForwardIterator1, typename _ForwardIterator2>
 131:/Library/DaisyToolchain/0.2.0/arm/arm-none-eabi/include/c++/10.3.1/bits/stl_algobase.h **** 	static void
ARM GAS  /var/folders/tn/k4r6j7b53kv6zg3nk3m4krpm0000gp/T//cce5pTHt.s 			page 50


 132:/Library/DaisyToolchain/0.2.0/arm/arm-none-eabi/include/c++/10.3.1/bits/stl_algobase.h **** 	iter_swap(_ForwardIterator1 __a, _ForwardIterator2 __b)
 133:/Library/DaisyToolchain/0.2.0/arm/arm-none-eabi/include/c++/10.3.1/bits/stl_algobase.h **** 	{
 134:/Library/DaisyToolchain/0.2.0/arm/arm-none-eabi/include/c++/10.3.1/bits/stl_algobase.h **** 	  swap(*__a, *__b);
 135:/Library/DaisyToolchain/0.2.0/arm/arm-none-eabi/include/c++/10.3.1/bits/stl_algobase.h **** 	}
 136:/Library/DaisyToolchain/0.2.0/arm/arm-none-eabi/include/c++/10.3.1/bits/stl_algobase.h ****     };
 137:/Library/DaisyToolchain/0.2.0/arm/arm-none-eabi/include/c++/10.3.1/bits/stl_algobase.h **** #endif // C++03
 138:/Library/DaisyToolchain/0.2.0/arm/arm-none-eabi/include/c++/10.3.1/bits/stl_algobase.h **** 
 139:/Library/DaisyToolchain/0.2.0/arm/arm-none-eabi/include/c++/10.3.1/bits/stl_algobase.h ****   /**
 140:/Library/DaisyToolchain/0.2.0/arm/arm-none-eabi/include/c++/10.3.1/bits/stl_algobase.h ****    *  @brief Swaps the contents of two iterators.
 141:/Library/DaisyToolchain/0.2.0/arm/arm-none-eabi/include/c++/10.3.1/bits/stl_algobase.h ****    *  @ingroup mutating_algorithms
 142:/Library/DaisyToolchain/0.2.0/arm/arm-none-eabi/include/c++/10.3.1/bits/stl_algobase.h ****    *  @param  __a  An iterator.
 143:/Library/DaisyToolchain/0.2.0/arm/arm-none-eabi/include/c++/10.3.1/bits/stl_algobase.h ****    *  @param  __b  Another iterator.
 144:/Library/DaisyToolchain/0.2.0/arm/arm-none-eabi/include/c++/10.3.1/bits/stl_algobase.h ****    *  @return   Nothing.
 145:/Library/DaisyToolchain/0.2.0/arm/arm-none-eabi/include/c++/10.3.1/bits/stl_algobase.h ****    *
 146:/Library/DaisyToolchain/0.2.0/arm/arm-none-eabi/include/c++/10.3.1/bits/stl_algobase.h ****    *  This function swaps the values pointed to by two iterators, not the
 147:/Library/DaisyToolchain/0.2.0/arm/arm-none-eabi/include/c++/10.3.1/bits/stl_algobase.h ****    *  iterators themselves.
 148:/Library/DaisyToolchain/0.2.0/arm/arm-none-eabi/include/c++/10.3.1/bits/stl_algobase.h ****   */
 149:/Library/DaisyToolchain/0.2.0/arm/arm-none-eabi/include/c++/10.3.1/bits/stl_algobase.h ****   template<typename _ForwardIterator1, typename _ForwardIterator2>
 150:/Library/DaisyToolchain/0.2.0/arm/arm-none-eabi/include/c++/10.3.1/bits/stl_algobase.h ****     _GLIBCXX20_CONSTEXPR
 151:/Library/DaisyToolchain/0.2.0/arm/arm-none-eabi/include/c++/10.3.1/bits/stl_algobase.h ****     inline void
 152:/Library/DaisyToolchain/0.2.0/arm/arm-none-eabi/include/c++/10.3.1/bits/stl_algobase.h ****     iter_swap(_ForwardIterator1 __a, _ForwardIterator2 __b)
 153:/Library/DaisyToolchain/0.2.0/arm/arm-none-eabi/include/c++/10.3.1/bits/stl_algobase.h ****     {
 154:/Library/DaisyToolchain/0.2.0/arm/arm-none-eabi/include/c++/10.3.1/bits/stl_algobase.h ****       // concept requirements
 155:/Library/DaisyToolchain/0.2.0/arm/arm-none-eabi/include/c++/10.3.1/bits/stl_algobase.h ****       __glibcxx_function_requires(_Mutable_ForwardIteratorConcept<
 156:/Library/DaisyToolchain/0.2.0/arm/arm-none-eabi/include/c++/10.3.1/bits/stl_algobase.h **** 				  _ForwardIterator1>)
 157:/Library/DaisyToolchain/0.2.0/arm/arm-none-eabi/include/c++/10.3.1/bits/stl_algobase.h ****       __glibcxx_function_requires(_Mutable_ForwardIteratorConcept<
 158:/Library/DaisyToolchain/0.2.0/arm/arm-none-eabi/include/c++/10.3.1/bits/stl_algobase.h **** 				  _ForwardIterator2>)
 159:/Library/DaisyToolchain/0.2.0/arm/arm-none-eabi/include/c++/10.3.1/bits/stl_algobase.h **** 
 160:/Library/DaisyToolchain/0.2.0/arm/arm-none-eabi/include/c++/10.3.1/bits/stl_algobase.h **** #if __cplusplus < 201103L
 161:/Library/DaisyToolchain/0.2.0/arm/arm-none-eabi/include/c++/10.3.1/bits/stl_algobase.h ****       typedef typename iterator_traits<_ForwardIterator1>::value_type
 162:/Library/DaisyToolchain/0.2.0/arm/arm-none-eabi/include/c++/10.3.1/bits/stl_algobase.h **** 	_ValueType1;
 163:/Library/DaisyToolchain/0.2.0/arm/arm-none-eabi/include/c++/10.3.1/bits/stl_algobase.h ****       typedef typename iterator_traits<_ForwardIterator2>::value_type
 164:/Library/DaisyToolchain/0.2.0/arm/arm-none-eabi/include/c++/10.3.1/bits/stl_algobase.h **** 	_ValueType2;
 165:/Library/DaisyToolchain/0.2.0/arm/arm-none-eabi/include/c++/10.3.1/bits/stl_algobase.h **** 
 166:/Library/DaisyToolchain/0.2.0/arm/arm-none-eabi/include/c++/10.3.1/bits/stl_algobase.h ****       __glibcxx_function_requires(_ConvertibleConcept<_ValueType1,
 167:/Library/DaisyToolchain/0.2.0/arm/arm-none-eabi/include/c++/10.3.1/bits/stl_algobase.h **** 				  _ValueType2>)
 168:/Library/DaisyToolchain/0.2.0/arm/arm-none-eabi/include/c++/10.3.1/bits/stl_algobase.h ****       __glibcxx_function_requires(_ConvertibleConcept<_ValueType2,
 169:/Library/DaisyToolchain/0.2.0/arm/arm-none-eabi/include/c++/10.3.1/bits/stl_algobase.h **** 				  _ValueType1>)
 170:/Library/DaisyToolchain/0.2.0/arm/arm-none-eabi/include/c++/10.3.1/bits/stl_algobase.h **** 
 171:/Library/DaisyToolchain/0.2.0/arm/arm-none-eabi/include/c++/10.3.1/bits/stl_algobase.h ****       typedef typename iterator_traits<_ForwardIterator1>::reference
 172:/Library/DaisyToolchain/0.2.0/arm/arm-none-eabi/include/c++/10.3.1/bits/stl_algobase.h **** 	_ReferenceType1;
 173:/Library/DaisyToolchain/0.2.0/arm/arm-none-eabi/include/c++/10.3.1/bits/stl_algobase.h ****       typedef typename iterator_traits<_ForwardIterator2>::reference
 174:/Library/DaisyToolchain/0.2.0/arm/arm-none-eabi/include/c++/10.3.1/bits/stl_algobase.h **** 	_ReferenceType2;
 175:/Library/DaisyToolchain/0.2.0/arm/arm-none-eabi/include/c++/10.3.1/bits/stl_algobase.h ****       std::__iter_swap<__are_same<_ValueType1, _ValueType2>::__value
 176:/Library/DaisyToolchain/0.2.0/arm/arm-none-eabi/include/c++/10.3.1/bits/stl_algobase.h **** 	&& __are_same<_ValueType1&, _ReferenceType1>::__value
 177:/Library/DaisyToolchain/0.2.0/arm/arm-none-eabi/include/c++/10.3.1/bits/stl_algobase.h **** 	&& __are_same<_ValueType2&, _ReferenceType2>::__value>::
 178:/Library/DaisyToolchain/0.2.0/arm/arm-none-eabi/include/c++/10.3.1/bits/stl_algobase.h **** 	iter_swap(__a, __b);
 179:/Library/DaisyToolchain/0.2.0/arm/arm-none-eabi/include/c++/10.3.1/bits/stl_algobase.h **** #else
 180:/Library/DaisyToolchain/0.2.0/arm/arm-none-eabi/include/c++/10.3.1/bits/stl_algobase.h ****       // _GLIBCXX_RESOLVE_LIB_DEFECTS
 181:/Library/DaisyToolchain/0.2.0/arm/arm-none-eabi/include/c++/10.3.1/bits/stl_algobase.h ****       // 187. iter_swap underspecified
 182:/Library/DaisyToolchain/0.2.0/arm/arm-none-eabi/include/c++/10.3.1/bits/stl_algobase.h ****       swap(*__a, *__b);
 183:/Library/DaisyToolchain/0.2.0/arm/arm-none-eabi/include/c++/10.3.1/bits/stl_algobase.h **** #endif
 184:/Library/DaisyToolchain/0.2.0/arm/arm-none-eabi/include/c++/10.3.1/bits/stl_algobase.h ****     }
 185:/Library/DaisyToolchain/0.2.0/arm/arm-none-eabi/include/c++/10.3.1/bits/stl_algobase.h **** 
 186:/Library/DaisyToolchain/0.2.0/arm/arm-none-eabi/include/c++/10.3.1/bits/stl_algobase.h ****   /**
 187:/Library/DaisyToolchain/0.2.0/arm/arm-none-eabi/include/c++/10.3.1/bits/stl_algobase.h ****    *  @brief Swap the elements of two sequences.
 188:/Library/DaisyToolchain/0.2.0/arm/arm-none-eabi/include/c++/10.3.1/bits/stl_algobase.h ****    *  @ingroup mutating_algorithms
ARM GAS  /var/folders/tn/k4r6j7b53kv6zg3nk3m4krpm0000gp/T//cce5pTHt.s 			page 51


 189:/Library/DaisyToolchain/0.2.0/arm/arm-none-eabi/include/c++/10.3.1/bits/stl_algobase.h ****    *  @param  __first1  A forward iterator.
 190:/Library/DaisyToolchain/0.2.0/arm/arm-none-eabi/include/c++/10.3.1/bits/stl_algobase.h ****    *  @param  __last1   A forward iterator.
 191:/Library/DaisyToolchain/0.2.0/arm/arm-none-eabi/include/c++/10.3.1/bits/stl_algobase.h ****    *  @param  __first2  A forward iterator.
 192:/Library/DaisyToolchain/0.2.0/arm/arm-none-eabi/include/c++/10.3.1/bits/stl_algobase.h ****    *  @return   An iterator equal to @p first2+(last1-first1).
 193:/Library/DaisyToolchain/0.2.0/arm/arm-none-eabi/include/c++/10.3.1/bits/stl_algobase.h ****    *
 194:/Library/DaisyToolchain/0.2.0/arm/arm-none-eabi/include/c++/10.3.1/bits/stl_algobase.h ****    *  Swaps each element in the range @p [first1,last1) with the
 195:/Library/DaisyToolchain/0.2.0/arm/arm-none-eabi/include/c++/10.3.1/bits/stl_algobase.h ****    *  corresponding element in the range @p [first2,(last1-first1)).
 196:/Library/DaisyToolchain/0.2.0/arm/arm-none-eabi/include/c++/10.3.1/bits/stl_algobase.h ****    *  The ranges must not overlap.
 197:/Library/DaisyToolchain/0.2.0/arm/arm-none-eabi/include/c++/10.3.1/bits/stl_algobase.h ****   */
 198:/Library/DaisyToolchain/0.2.0/arm/arm-none-eabi/include/c++/10.3.1/bits/stl_algobase.h ****   template<typename _ForwardIterator1, typename _ForwardIterator2>
 199:/Library/DaisyToolchain/0.2.0/arm/arm-none-eabi/include/c++/10.3.1/bits/stl_algobase.h ****     _GLIBCXX20_CONSTEXPR
 200:/Library/DaisyToolchain/0.2.0/arm/arm-none-eabi/include/c++/10.3.1/bits/stl_algobase.h ****     _ForwardIterator2
 201:/Library/DaisyToolchain/0.2.0/arm/arm-none-eabi/include/c++/10.3.1/bits/stl_algobase.h ****     swap_ranges(_ForwardIterator1 __first1, _ForwardIterator1 __last1,
 202:/Library/DaisyToolchain/0.2.0/arm/arm-none-eabi/include/c++/10.3.1/bits/stl_algobase.h **** 		_ForwardIterator2 __first2)
 203:/Library/DaisyToolchain/0.2.0/arm/arm-none-eabi/include/c++/10.3.1/bits/stl_algobase.h ****     {
 204:/Library/DaisyToolchain/0.2.0/arm/arm-none-eabi/include/c++/10.3.1/bits/stl_algobase.h ****       // concept requirements
 205:/Library/DaisyToolchain/0.2.0/arm/arm-none-eabi/include/c++/10.3.1/bits/stl_algobase.h ****       __glibcxx_function_requires(_Mutable_ForwardIteratorConcept<
 206:/Library/DaisyToolchain/0.2.0/arm/arm-none-eabi/include/c++/10.3.1/bits/stl_algobase.h **** 				  _ForwardIterator1>)
 207:/Library/DaisyToolchain/0.2.0/arm/arm-none-eabi/include/c++/10.3.1/bits/stl_algobase.h ****       __glibcxx_function_requires(_Mutable_ForwardIteratorConcept<
 208:/Library/DaisyToolchain/0.2.0/arm/arm-none-eabi/include/c++/10.3.1/bits/stl_algobase.h **** 				  _ForwardIterator2>)
 209:/Library/DaisyToolchain/0.2.0/arm/arm-none-eabi/include/c++/10.3.1/bits/stl_algobase.h ****       __glibcxx_requires_valid_range(__first1, __last1);
 210:/Library/DaisyToolchain/0.2.0/arm/arm-none-eabi/include/c++/10.3.1/bits/stl_algobase.h **** 
 211:/Library/DaisyToolchain/0.2.0/arm/arm-none-eabi/include/c++/10.3.1/bits/stl_algobase.h ****       for (; __first1 != __last1; ++__first1, (void)++__first2)
 212:/Library/DaisyToolchain/0.2.0/arm/arm-none-eabi/include/c++/10.3.1/bits/stl_algobase.h **** 	std::iter_swap(__first1, __first2);
 213:/Library/DaisyToolchain/0.2.0/arm/arm-none-eabi/include/c++/10.3.1/bits/stl_algobase.h ****       return __first2;
 214:/Library/DaisyToolchain/0.2.0/arm/arm-none-eabi/include/c++/10.3.1/bits/stl_algobase.h ****     }
 215:/Library/DaisyToolchain/0.2.0/arm/arm-none-eabi/include/c++/10.3.1/bits/stl_algobase.h **** 
 216:/Library/DaisyToolchain/0.2.0/arm/arm-none-eabi/include/c++/10.3.1/bits/stl_algobase.h ****   /**
 217:/Library/DaisyToolchain/0.2.0/arm/arm-none-eabi/include/c++/10.3.1/bits/stl_algobase.h ****    *  @brief This does what you think it does.
 218:/Library/DaisyToolchain/0.2.0/arm/arm-none-eabi/include/c++/10.3.1/bits/stl_algobase.h ****    *  @ingroup sorting_algorithms
 219:/Library/DaisyToolchain/0.2.0/arm/arm-none-eabi/include/c++/10.3.1/bits/stl_algobase.h ****    *  @param  __a  A thing of arbitrary type.
 220:/Library/DaisyToolchain/0.2.0/arm/arm-none-eabi/include/c++/10.3.1/bits/stl_algobase.h ****    *  @param  __b  Another thing of arbitrary type.
 221:/Library/DaisyToolchain/0.2.0/arm/arm-none-eabi/include/c++/10.3.1/bits/stl_algobase.h ****    *  @return   The lesser of the parameters.
 222:/Library/DaisyToolchain/0.2.0/arm/arm-none-eabi/include/c++/10.3.1/bits/stl_algobase.h ****    *
 223:/Library/DaisyToolchain/0.2.0/arm/arm-none-eabi/include/c++/10.3.1/bits/stl_algobase.h ****    *  This is the simple classic generic implementation.  It will work on
 224:/Library/DaisyToolchain/0.2.0/arm/arm-none-eabi/include/c++/10.3.1/bits/stl_algobase.h ****    *  temporary expressions, since they are only evaluated once, unlike a
 225:/Library/DaisyToolchain/0.2.0/arm/arm-none-eabi/include/c++/10.3.1/bits/stl_algobase.h ****    *  preprocessor macro.
 226:/Library/DaisyToolchain/0.2.0/arm/arm-none-eabi/include/c++/10.3.1/bits/stl_algobase.h ****   */
 227:/Library/DaisyToolchain/0.2.0/arm/arm-none-eabi/include/c++/10.3.1/bits/stl_algobase.h ****   template<typename _Tp>
 228:/Library/DaisyToolchain/0.2.0/arm/arm-none-eabi/include/c++/10.3.1/bits/stl_algobase.h ****     _GLIBCXX14_CONSTEXPR
 229:/Library/DaisyToolchain/0.2.0/arm/arm-none-eabi/include/c++/10.3.1/bits/stl_algobase.h ****     inline const _Tp&
 230:/Library/DaisyToolchain/0.2.0/arm/arm-none-eabi/include/c++/10.3.1/bits/stl_algobase.h ****     min(const _Tp& __a, const _Tp& __b)
 1084              		.loc 19 230 5 view .LVU276
 1085              	.LBB647:
 231:/Library/DaisyToolchain/0.2.0/arm/arm-none-eabi/include/c++/10.3.1/bits/stl_algobase.h ****     {
 232:/Library/DaisyToolchain/0.2.0/arm/arm-none-eabi/include/c++/10.3.1/bits/stl_algobase.h ****       // concept requirements
 233:/Library/DaisyToolchain/0.2.0/arm/arm-none-eabi/include/c++/10.3.1/bits/stl_algobase.h ****       __glibcxx_function_requires(_LessThanComparableConcept<_Tp>)
 234:/Library/DaisyToolchain/0.2.0/arm/arm-none-eabi/include/c++/10.3.1/bits/stl_algobase.h ****       //return __b < __a ? __b : __a;
 235:/Library/DaisyToolchain/0.2.0/arm/arm-none-eabi/include/c++/10.3.1/bits/stl_algobase.h ****       if (__b < __a)
 1086              		.loc 19 235 7 is_stmt 0 view .LVU277
 1087 00be F7EE007A 		vmov.f32	s15, #1.0e+0
 1088 00c2 B4EEE70A 		vcmpe.f32	s0, s15
 1089 00c6 F1EE10FA 		vmrs	APSR_nzcv, FPSCR
 1090 00ca 05D4     		bmi	.L59
 1091 00cc 9FED0B0A 		vldr.32	s0, .L61+4
 1092              	.LVL59:
 1093              		.loc 19 235 7 view .LVU278
ARM GAS  /var/folders/tn/k4r6j7b53kv6zg3nk3m4krpm0000gp/T//cce5pTHt.s 			page 52


 1094 00d0 A8E7     		b	.L29
 1095              	.LVL60:
 1096              	.L55:
 1097              		.loc 19 235 7 view .LVU279
 1098              	.LBE647:
 1099              	.LBE646:
  41:library/effects/Saturation.cpp ****         case QUADRATIC_SATURATION: return (x > 1.0f) ? (2.0f - (1.0f / x)) : x; 
 1100              		.loc 18 41 54 view .LVU280
 1101 00d2 B0EE480A 		vmov.f32	s0, s16
 1102              	.LVL61:
  41:library/effects/Saturation.cpp ****         case QUADRATIC_SATURATION: return (x > 1.0f) ? (2.0f - (1.0f / x)) : x; 
 1103              		.loc 18 41 54 view .LVU281
 1104 00d6 A5E7     		b	.L29
 1105              	.LVL62:
 1106              	.L59:
 1107              	.LBB648:
 1108              	.LBI648:
 236:/Library/DaisyToolchain/0.2.0/arm/arm-none-eabi/include/c++/10.3.1/bits/stl_algobase.h **** 	return __b;
 237:/Library/DaisyToolchain/0.2.0/arm/arm-none-eabi/include/c++/10.3.1/bits/stl_algobase.h ****       return __a;
 238:/Library/DaisyToolchain/0.2.0/arm/arm-none-eabi/include/c++/10.3.1/bits/stl_algobase.h ****     }
 239:/Library/DaisyToolchain/0.2.0/arm/arm-none-eabi/include/c++/10.3.1/bits/stl_algobase.h **** 
 240:/Library/DaisyToolchain/0.2.0/arm/arm-none-eabi/include/c++/10.3.1/bits/stl_algobase.h ****   /**
 241:/Library/DaisyToolchain/0.2.0/arm/arm-none-eabi/include/c++/10.3.1/bits/stl_algobase.h ****    *  @brief This does what you think it does.
 242:/Library/DaisyToolchain/0.2.0/arm/arm-none-eabi/include/c++/10.3.1/bits/stl_algobase.h ****    *  @ingroup sorting_algorithms
 243:/Library/DaisyToolchain/0.2.0/arm/arm-none-eabi/include/c++/10.3.1/bits/stl_algobase.h ****    *  @param  __a  A thing of arbitrary type.
 244:/Library/DaisyToolchain/0.2.0/arm/arm-none-eabi/include/c++/10.3.1/bits/stl_algobase.h ****    *  @param  __b  Another thing of arbitrary type.
 245:/Library/DaisyToolchain/0.2.0/arm/arm-none-eabi/include/c++/10.3.1/bits/stl_algobase.h ****    *  @return   The greater of the parameters.
 246:/Library/DaisyToolchain/0.2.0/arm/arm-none-eabi/include/c++/10.3.1/bits/stl_algobase.h ****    *
 247:/Library/DaisyToolchain/0.2.0/arm/arm-none-eabi/include/c++/10.3.1/bits/stl_algobase.h ****    *  This is the simple classic generic implementation.  It will work on
 248:/Library/DaisyToolchain/0.2.0/arm/arm-none-eabi/include/c++/10.3.1/bits/stl_algobase.h ****    *  temporary expressions, since they are only evaluated once, unlike a
 249:/Library/DaisyToolchain/0.2.0/arm/arm-none-eabi/include/c++/10.3.1/bits/stl_algobase.h ****    *  preprocessor macro.
 250:/Library/DaisyToolchain/0.2.0/arm/arm-none-eabi/include/c++/10.3.1/bits/stl_algobase.h ****   */
 251:/Library/DaisyToolchain/0.2.0/arm/arm-none-eabi/include/c++/10.3.1/bits/stl_algobase.h ****   template<typename _Tp>
 252:/Library/DaisyToolchain/0.2.0/arm/arm-none-eabi/include/c++/10.3.1/bits/stl_algobase.h ****     _GLIBCXX14_CONSTEXPR
 253:/Library/DaisyToolchain/0.2.0/arm/arm-none-eabi/include/c++/10.3.1/bits/stl_algobase.h ****     inline const _Tp&
 254:/Library/DaisyToolchain/0.2.0/arm/arm-none-eabi/include/c++/10.3.1/bits/stl_algobase.h ****     max(const _Tp& __a, const _Tp& __b)
 1109              		.loc 19 254 5 is_stmt 1 view .LVU282
 1110              	.LBB649:
 255:/Library/DaisyToolchain/0.2.0/arm/arm-none-eabi/include/c++/10.3.1/bits/stl_algobase.h ****     {
 256:/Library/DaisyToolchain/0.2.0/arm/arm-none-eabi/include/c++/10.3.1/bits/stl_algobase.h ****       // concept requirements
 257:/Library/DaisyToolchain/0.2.0/arm/arm-none-eabi/include/c++/10.3.1/bits/stl_algobase.h ****       __glibcxx_function_requires(_LessThanComparableConcept<_Tp>)
 258:/Library/DaisyToolchain/0.2.0/arm/arm-none-eabi/include/c++/10.3.1/bits/stl_algobase.h ****       //return  __a < __b ? __b : __a;
 259:/Library/DaisyToolchain/0.2.0/arm/arm-none-eabi/include/c++/10.3.1/bits/stl_algobase.h ****       if (__a < __b)
 1111              		.loc 19 259 7 is_stmt 0 view .LVU283
 1112 00d8 FFEE007A 		vmov.f32	s15, #-1.0e+0
 1113 00dc B4EEE70A 		vcmpe.f32	s0, s15
 1114 00e0 F1EE10FA 		vmrs	APSR_nzcv, FPSCR
 1115 00e4 02DC     		bgt	.L60
 1116 00e6 9FED060A 		vldr.32	s0, .L61+8
 1117              	.LVL63:
 1118              		.loc 19 259 7 view .LVU284
 1119 00ea 9BE7     		b	.L29
 1120              	.LVL64:
 1121              	.L60:
 1122              		.loc 19 259 7 view .LVU285
 1123              	.LBE649:
 1124              	.LBE648:
ARM GAS  /var/folders/tn/k4r6j7b53kv6zg3nk3m4krpm0000gp/T//cce5pTHt.s 			page 53


  44:library/effects/Saturation.cpp ****         case HARD_CLIP: return (std::max(-1.0f, std::min(1.0f, x)))*.8f; 
 1125              		.loc 18 44 69 view .LVU286
 1126 00ec 9FED030A 		vldr.32	s0, .L61+4
 1127              	.LVL65:
  44:library/effects/Saturation.cpp ****         case HARD_CLIP: return (std::max(-1.0f, std::min(1.0f, x)))*.8f; 
 1128              		.loc 18 44 69 view .LVU287
 1129 00f0 28EE000A 		vmul.f32	s0, s16, s0
 1130 00f4 96E7     		b	.L29
 1131              	.L62:
 1132 00f6 00BF     		.align	2
 1133              	.L61:
 1134 00f8 ABAAAA3E 		.word	1051372203
 1135 00fc CDCC4C3F 		.word	1061997773
 1136 0100 CDCC4CBF 		.word	-1085485875
 1137              		.cfi_endproc
 1138              	.LFE4861:
 1140              		.section	.text._ZN13sudwalfulkaan10Saturation7ProcessEf,"ax",%progbits
 1141              		.align	1
 1142              		.p2align 2,,3
 1143              		.global	_ZN13sudwalfulkaan10Saturation7ProcessEf
 1144              		.syntax unified
 1145              		.thumb
 1146              		.thumb_func
 1148              	_ZN13sudwalfulkaan10Saturation7ProcessEf:
 1149              	.LVL66:
 1150              	.LFB4860:
  29:library/effects/Saturation.cpp **** float Saturation::Process(float in) {
 1151              		.loc 18 29 37 is_stmt 1 view -0
 1152              		.cfi_startproc
 1153              		@ args = 0, pretend = 0, frame = 0
 1154              		@ frame_needed = 0, uses_anonymous_args = 0
  30:library/effects/Saturation.cpp ****     float x = in * gain_;
 1155              		.loc 18 30 5 view .LVU289
  29:library/effects/Saturation.cpp **** float Saturation::Process(float in) {
 1156              		.loc 18 29 37 is_stmt 0 view .LVU290
 1157 0000 10B5     		push	{r4, lr}
 1158              		.cfi_def_cfa_offset 8
 1159              		.cfi_offset 4, -8
 1160              		.cfi_offset 14, -4
 1161 0002 2DED028B 		vpush.64	{d8}
 1162              		.cfi_def_cfa_offset 16
 1163              		.cfi_offset 80, -16
 1164              		.cfi_offset 81, -12
  29:library/effects/Saturation.cpp **** float Saturation::Process(float in) {
 1165              		.loc 18 29 37 view .LVU291
 1166 0006 B0EE408A 		vmov.f32	s16, s0
 1167              	.LVL67:
  31:library/effects/Saturation.cpp ****     float saturated = ApplySaturation(x);
 1168              		.loc 18 31 5 is_stmt 1 view .LVU292
  30:library/effects/Saturation.cpp ****     float x = in * gain_;
 1169              		.loc 18 30 11 is_stmt 0 view .LVU293
 1170 000a 90ED000A 		vldr.32	s0, [r0]
 1171              	.LVL68:
  29:library/effects/Saturation.cpp **** float Saturation::Process(float in) {
 1172              		.loc 18 29 37 view .LVU294
 1173 000e 0446     		mov	r4, r0
  31:library/effects/Saturation.cpp ****     float saturated = ApplySaturation(x);
ARM GAS  /var/folders/tn/k4r6j7b53kv6zg3nk3m4krpm0000gp/T//cce5pTHt.s 			page 54


 1174              		.loc 18 31 38 view .LVU295
 1175 0010 28EE000A 		vmul.f32	s0, s16, s0
 1176              	.LVL69:
  31:library/effects/Saturation.cpp ****     float saturated = ApplySaturation(x);
 1177              		.loc 18 31 38 view .LVU296
 1178 0014 FFF7FEFF 		bl	_ZN13sudwalfulkaan10Saturation15ApplySaturationEf
 1179              	.LVL70:
  32:library/effects/Saturation.cpp ****     return drywet_ * saturated  + ((1.f - drywet_) * in);
 1180              		.loc 18 32 5 is_stmt 1 view .LVU297
  32:library/effects/Saturation.cpp ****     return drywet_ * saturated  + ((1.f - drywet_) * in);
 1181              		.loc 18 32 41 is_stmt 0 view .LVU298
 1182 0018 B7EE007A 		vmov.f32	s14, #1.0e+0
  32:library/effects/Saturation.cpp ****     return drywet_ * saturated  + ((1.f - drywet_) * in);
 1183              		.loc 18 32 12 view .LVU299
 1184 001c D4ED026A 		vldr.32	s13, [r4, #8]
  32:library/effects/Saturation.cpp ****     return drywet_ * saturated  + ((1.f - drywet_) * in);
 1185              		.loc 18 32 41 view .LVU300
 1186 0020 37EE667A 		vsub.f32	s14, s14, s13
  32:library/effects/Saturation.cpp ****     return drywet_ * saturated  + ((1.f - drywet_) * in);
 1187              		.loc 18 32 52 view .LVU301
 1188 0024 27EE087A 		vmul.f32	s14, s14, s16
  33:library/effects/Saturation.cpp **** }
 1189              		.loc 18 33 1 view .LVU302
 1190 0028 BDEC028B 		vldm	sp!, {d8}
 1191              		.cfi_restore 80
 1192              		.cfi_restore 81
 1193              		.cfi_def_cfa_offset 8
 1194              	.LVL71:
  33:library/effects/Saturation.cpp **** }
 1195              		.loc 18 33 1 view .LVU303
 1196 002c A6EE807A 		vfma.f32	s14, s13, s0
 1197 0030 B0EE470A 		vmov.f32	s0, s14
 1198              	.LVL72:
  33:library/effects/Saturation.cpp **** }
 1199              		.loc 18 33 1 view .LVU304
 1200 0034 10BD     		pop	{r4, pc}
  33:library/effects/Saturation.cpp **** }
 1201              		.loc 18 33 1 view .LVU305
 1202              		.cfi_endproc
 1203              	.LFE4860:
 1205 0036 00BF     		.section	.text._ZN13sudwalfulkaan9UIManager4InitEPKNS_9PotConfigE,"ax",%progbits
 1206              		.align	1
 1207              		.p2align 2,,3
 1208              		.global	_ZN13sudwalfulkaan9UIManager4InitEPKNS_9PotConfigE
 1209              		.syntax unified
 1210              		.thumb
 1211              		.thumb_func
 1213              	_ZN13sudwalfulkaan9UIManager4InitEPKNS_9PotConfigE:
 1214              	.LVL73:
 1215              	.LFB5196:
 1216              		.file 20 "library/ui/UIManager.cpp"
   1:library/ui/UIManager.cpp **** #include "UIManager.h"
   2:library/ui/UIManager.cpp **** 
   3:library/ui/UIManager.cpp **** using namespace sudwalfulkaan;
   4:library/ui/UIManager.cpp **** 
   5:library/ui/UIManager.cpp **** void UIManager::Init(const PotConfig pot_configs[4]) {
 1217              		.loc 20 5 54 is_stmt 1 view -0
ARM GAS  /var/folders/tn/k4r6j7b53kv6zg3nk3m4krpm0000gp/T//cce5pTHt.s 			page 55


 1218              		.cfi_startproc
 1219              		@ args = 0, pretend = 0, frame = 8
 1220              		@ frame_needed = 0, uses_anonymous_args = 0
   6:library/ui/UIManager.cpp ****     button_.Init(DaisyPatchSM::B7, 0, Switch::TYPE_MOMENTARY, Switch::POLARITY_INVERTED, Switch::PU
 1221              		.loc 20 6 5 view .LVU307
   5:library/ui/UIManager.cpp ****     button_.Init(DaisyPatchSM::B7, 0, Switch::TYPE_MOMENTARY, Switch::POLARITY_INVERTED, Switch::PU
 1222              		.loc 20 5 54 is_stmt 0 view .LVU308
 1223 0000 F0B5     		push	{r4, r5, r6, r7, lr}
 1224              		.cfi_def_cfa_offset 20
 1225              		.cfi_offset 4, -20
 1226              		.cfi_offset 5, -16
 1227              		.cfi_offset 6, -12
 1228              		.cfi_offset 7, -8
 1229              		.cfi_offset 14, -4
 1230              		.loc 20 6 17 view .LVU309
 1231 0002 0823     		movs	r3, #8
   5:library/ui/UIManager.cpp ****     button_.Init(DaisyPatchSM::B7, 0, Switch::TYPE_MOMENTARY, Switch::POLARITY_INVERTED, Switch::PU
 1232              		.loc 20 5 54 view .LVU310
 1233 0004 85B0     		sub	sp, sp, #20
 1234              		.cfi_def_cfa_offset 40
 1235              		.loc 20 6 17 view .LVU311
 1236 0006 0126     		movs	r6, #1
 1237 0008 0027     		movs	r7, #0
 1238 000a 8DF80930 		strb	r3, [sp, #9]
   5:library/ui/UIManager.cpp ****     button_.Init(DaisyPatchSM::B7, 0, Switch::TYPE_MOMENTARY, Switch::POLARITY_INVERTED, Switch::PU
 1239              		.loc 20 5 54 view .LVU312
 1240 000e 0C46     		mov	r4, r1
 1241              		.loc 20 6 17 view .LVU313
 1242 0010 8DF80860 		strb	r6, [sp, #8]
 1243 0014 3346     		mov	r3, r6
 1244 0016 3246     		mov	r2, r6
 1245 0018 9FED1E0A 		vldr.32	s0, .L69
 1246 001c 0299     		ldr	r1, [sp, #8]
 1247              	.LVL74:
   5:library/ui/UIManager.cpp ****     button_.Init(DaisyPatchSM::B7, 0, Switch::TYPE_MOMENTARY, Switch::POLARITY_INVERTED, Switch::PU
 1248              		.loc 20 5 54 view .LVU314
 1249 001e 0546     		mov	r5, r0
 1250              		.loc 20 6 17 view .LVU315
 1251 0020 0097     		str	r7, [sp]
 1252 0022 FFF7FEFF 		bl	_ZN5daisy6Switch4InitE12dsy_gpio_pinfNS0_4TypeENS0_8PolarityENS0_4PullE
 1253              	.LVL75:
   7:library/ui/UIManager.cpp ****     toggle_.Init(DaisyPatchSM::B8, 0, Switch::TYPE_TOGGLE, Switch::POLARITY_NORMAL, Switch::PULL_UP
 1254              		.loc 20 7 5 is_stmt 1 view .LVU316
 1255              		.loc 20 7 17 is_stmt 0 view .LVU317
 1256 0026 0923     		movs	r3, #9
 1257 0028 8DF80C60 		strb	r6, [sp, #12]
 1258 002c 3A46     		mov	r2, r7
 1259 002e 8DF80D30 		strb	r3, [sp, #13]
 1260 0032 05F11000 		add	r0, r5, #16
 1261 0036 3B46     		mov	r3, r7
 1262 0038 0097     		str	r7, [sp]
 1263 003a 9FED160A 		vldr.32	s0, .L69
 1264 003e 2E46     		mov	r6, r5
 1265 0040 0399     		ldr	r1, [sp, #12]
 1266 0042 04F15007 		add	r7, r4, #80
 1267 0046 FFF7FEFF 		bl	_ZN5daisy6Switch4InitE12dsy_gpio_pinfNS0_4TypeENS0_8PolarityENS0_4PullE
 1268              	.LVL76:
ARM GAS  /var/folders/tn/k4r6j7b53kv6zg3nk3m4krpm0000gp/T//cce5pTHt.s 			page 56


   8:library/ui/UIManager.cpp ****     last_toggle_state_ = toggle_.Pressed();
 1269              		.loc 20 8 5 is_stmt 1 view .LVU318
 1270              	.LBB650:
 1271              	.LBI650:
  43:../../libDaisy//src/hid/switch.h **** 
  44:../../libDaisy//src/hid/switch.h ****     /** 
  45:../../libDaisy//src/hid/switch.h ****     Initializes the switch object with a given port/pin combo.
  46:../../libDaisy//src/hid/switch.h ****     \param pin port/pin object to tell the switch which hardware pin to use.
  47:../../libDaisy//src/hid/switch.h ****     \param update_rate Does nothing. Backwards compatibility until next breaking update.
  48:../../libDaisy//src/hid/switch.h ****     \param t switch type -- Default: TYPE_MOMENTARY
  49:../../libDaisy//src/hid/switch.h ****     \param pol switch polarity -- Default: POLARITY_INVERTED
  50:../../libDaisy//src/hid/switch.h ****     \param pu switch pull up/down -- Default: PULL_UP
  51:../../libDaisy//src/hid/switch.h ****     */
  52:../../libDaisy//src/hid/switch.h ****     void
  53:../../libDaisy//src/hid/switch.h ****     Init(dsy_gpio_pin pin, float update_rate, Type t, Polarity pol, Pull pu);
  54:../../libDaisy//src/hid/switch.h **** 
  55:../../libDaisy//src/hid/switch.h ****     /**
  56:../../libDaisy//src/hid/switch.h ****        Simplified Init.
  57:../../libDaisy//src/hid/switch.h ****        \param pin port/pin object to tell the switch which hardware pin to use.
  58:../../libDaisy//src/hid/switch.h ****        \param update_rate Left for backwards compatibility until next breaking change.
  59:../../libDaisy//src/hid/switch.h ****     */
  60:../../libDaisy//src/hid/switch.h ****     void Init(dsy_gpio_pin pin, float update_rate = 0.f);
  61:../../libDaisy//src/hid/switch.h **** 
  62:../../libDaisy//src/hid/switch.h ****     /** 
  63:../../libDaisy//src/hid/switch.h ****     Called at update_rate to debounce and handle timing for the switch.
  64:../../libDaisy//src/hid/switch.h ****     In order for events not to be missed, its important that the Edge/Pressed checks
  65:../../libDaisy//src/hid/switch.h ****     be made at the same rate as the debounce function is being called.
  66:../../libDaisy//src/hid/switch.h ****     */
  67:../../libDaisy//src/hid/switch.h ****     void Debounce();
  68:../../libDaisy//src/hid/switch.h **** 
  69:../../libDaisy//src/hid/switch.h ****     /** \return true if a button was just pressed. */
  70:../../libDaisy//src/hid/switch.h ****     inline bool RisingEdge() const { return updated_ ? state_ == 0x7f : false; }
  71:../../libDaisy//src/hid/switch.h **** 
  72:../../libDaisy//src/hid/switch.h ****     /** \return true if the button was just released */
  73:../../libDaisy//src/hid/switch.h ****     inline bool FallingEdge() const
  74:../../libDaisy//src/hid/switch.h ****     {
  75:../../libDaisy//src/hid/switch.h ****         return updated_ ? state_ == 0x80 : false;
  76:../../libDaisy//src/hid/switch.h ****     }
  77:../../libDaisy//src/hid/switch.h **** 
  78:../../libDaisy//src/hid/switch.h ****     /** \return true if the button is held down (or if the toggle is on) */
  79:../../libDaisy//src/hid/switch.h ****     inline bool Pressed() const { return state_ == 0xff; }
 1272              		.loc 10 79 17 view .LVU319
 1273              	.LBB651:
 1274              		.loc 10 79 35 view .LVU320
 1275              		.loc 10 79 52 is_stmt 0 view .LVU321
 1276 004a AB7E     		ldrb	r3, [r5, #26]	@ zero_extendqisi2
 1277 004c A3F1FF03 		sub	r3, #255
 1278 0050 B3FA83F3 		clz	r3, r3
 1279 0054 5B09     		lsrs	r3, r3, #5
 1280 0056 85F82130 		strb	r3, [r5, #33]
 1281              	.LBE651:
 1282              	.LBE650:
   9:library/ui/UIManager.cpp **** 
  10:library/ui/UIManager.cpp ****     for(int i = 0; i < 4; ++i) {
 1283              		.loc 20 10 5 is_stmt 1 view .LVU322
 1284              	.LVL77:
 1285              	.LBB652:
ARM GAS  /var/folders/tn/k4r6j7b53kv6zg3nk3m4krpm0000gp/T//cce5pTHt.s 			page 57


 1286              		.loc 20 10 22 view .LVU323
 1287              	.L66:
  11:library/ui/UIManager.cpp ****         pot_configs_[i] = pot_configs[i];
 1288              		.loc 20 11 9 discriminator 2 view .LVU324
 1289              		.loc 20 11 25 is_stmt 0 discriminator 2 view .LVU325
 1290 005a A646     		mov	lr, r4
 1291 005c 06F1640C 		add	ip, r6, #100
  10:library/ui/UIManager.cpp ****         pot_configs_[i] = pot_configs[i];
 1292              		.loc 20 10 22 discriminator 2 view .LVU326
 1293 0060 1434     		adds	r4, r4, #20
 1294 0062 1035     		adds	r5, r5, #16
 1295              	.LBB653:
 1296              	.LBB654:
 1297              		.file 21 "library/ui/ParamSmoother.h"
   1:library/ui/ParamSmoother.h **** #pragma once
   2:library/ui/ParamSmoother.h **** 
   3:library/ui/ParamSmoother.h **** #include <cmath>
   4:library/ui/ParamSmoother.h **** #include <algorithm>
   5:library/ui/ParamSmoother.h **** 
   6:library/ui/ParamSmoother.h **** namespace sudwalfulkaan
   7:library/ui/ParamSmoother.h **** {
   8:library/ui/ParamSmoother.h **** class ParamSmoother
   9:library/ui/ParamSmoother.h **** {
  10:library/ui/ParamSmoother.h ****   public:
  11:library/ui/ParamSmoother.h ****     void Init(float initial, float slewRate = 0.05f, float threshold = 0.001f)
  12:library/ui/ParamSmoother.h ****     {
  13:library/ui/ParamSmoother.h ****         smoothed_ = initial;
  14:library/ui/ParamSmoother.h ****         previous_ = initial;
  15:library/ui/ParamSmoother.h ****         slewRate_ = slewRate;
  16:library/ui/ParamSmoother.h ****         threshold_ = threshold;
 1298              		.loc 21 16 20 discriminator 2 view .LVU327
 1299 0064 DFED0C7A 		vldr.32	s15, .L69+4
 1300              	.LBE654:
 1301              	.LBE653:
  10:library/ui/UIManager.cpp ****         pot_configs_[i] = pot_configs[i];
 1302              		.loc 20 10 22 discriminator 2 view .LVU328
 1303 0068 1436     		adds	r6, r6, #20
 1304 006a BC42     		cmp	r4, r7
 1305              		.loc 20 11 25 discriminator 2 view .LVU329
 1306 006c BEE80F00 		ldmia	lr!, {r0, r1, r2, r3}
 1307 0070 ACE80F00 		stmia	ip!, {r0, r1, r2, r3}
 1308 0074 DEF80030 		ldr	r3, [lr]
 1309 0078 CCF80030 		str	r3, [ip]
  12:library/ui/UIManager.cpp ****         pots_[i].Init(pot_configs[i].initial_value, pot_configs[i].slew_rate);
 1310              		.loc 20 12 9 is_stmt 1 discriminator 2 view .LVU330
 1311              		.loc 20 12 38 is_stmt 0 discriminator 2 view .LVU331
 1312 007c 54F8143C 		ldr	r3, [r4, #-20]	@ float
 1313              		.loc 20 12 68 discriminator 2 view .LVU332
 1314 0080 54F8102C 		ldr	r2, [r4, #-16]	@ float
 1315              	.LVL78:
 1316              	.LBB656:
 1317              	.LBI653:
  11:library/ui/ParamSmoother.h ****     {
 1318              		.loc 21 11 10 is_stmt 1 discriminator 2 view .LVU333
 1319              	.LBB655:
  13:library/ui/ParamSmoother.h ****         previous_ = initial;
 1320              		.loc 21 13 9 discriminator 2 view .LVU334
ARM GAS  /var/folders/tn/k4r6j7b53kv6zg3nk3m4krpm0000gp/T//cce5pTHt.s 			page 58


 1321              		.loc 21 16 20 is_stmt 0 discriminator 2 view .LVU335
 1322 0084 C5ED087A 		vstr.32	s15, [r5, #32]
  13:library/ui/ParamSmoother.h ****         previous_ = initial;
 1323              		.loc 21 13 19 discriminator 2 view .LVU336
 1324 0088 6B61     		str	r3, [r5, #20]	@ float
  14:library/ui/ParamSmoother.h ****         slewRate_ = slewRate;
 1325              		.loc 21 14 9 is_stmt 1 discriminator 2 view .LVU337
  14:library/ui/ParamSmoother.h ****         slewRate_ = slewRate;
 1326              		.loc 21 14 19 is_stmt 0 discriminator 2 view .LVU338
 1327 008a AB61     		str	r3, [r5, #24]	@ float
  15:library/ui/ParamSmoother.h ****         threshold_ = threshold;
 1328              		.loc 21 15 9 is_stmt 1 discriminator 2 view .LVU339
  15:library/ui/ParamSmoother.h ****         threshold_ = threshold;
 1329              		.loc 21 15 19 is_stmt 0 discriminator 2 view .LVU340
 1330 008c EA61     		str	r2, [r5, #28]	@ float
 1331              		.loc 21 16 9 is_stmt 1 discriminator 2 view .LVU341
 1332              	.LVL79:
 1333              		.loc 21 16 9 is_stmt 0 discriminator 2 view .LVU342
 1334              	.LBE655:
 1335              	.LBE656:
  10:library/ui/UIManager.cpp ****         pot_configs_[i] = pot_configs[i];
 1336              		.loc 20 10 5 is_stmt 1 discriminator 2 view .LVU343
  10:library/ui/UIManager.cpp ****         pot_configs_[i] = pot_configs[i];
 1337              		.loc 20 10 22 discriminator 2 view .LVU344
 1338 008e E4D1     		bne	.L66
 1339              	.LBE652:
  13:library/ui/UIManager.cpp ****     }
  14:library/ui/UIManager.cpp **** }
 1340              		.loc 20 14 1 is_stmt 0 view .LVU345
 1341 0090 05B0     		add	sp, sp, #20
 1342              		.cfi_def_cfa_offset 20
 1343              		@ sp needed
 1344 0092 F0BD     		pop	{r4, r5, r6, r7, pc}
 1345              	.LVL80:
 1346              	.L70:
 1347              		.loc 20 14 1 view .LVU346
 1348              		.align	2
 1349              	.L69:
 1350 0094 00000000 		.word	0
 1351 0098 6F12833A 		.word	981668463
 1352              		.cfi_endproc
 1353              	.LFE5196:
 1355              		.section	.text._ZN13sudwalfulkaan9UIManager6UpdateEv,"ax",%progbits
 1356              		.align	1
 1357              		.p2align 2,,3
 1358              		.global	_ZN13sudwalfulkaan9UIManager6UpdateEv
 1359              		.syntax unified
 1360              		.thumb
 1361              		.thumb_func
 1363              	_ZN13sudwalfulkaan9UIManager6UpdateEv:
 1364              	.LVL81:
 1365              	.LFB5197:
  15:library/ui/UIManager.cpp **** 
  16:library/ui/UIManager.cpp **** void UIManager::Update() {
 1366              		.loc 20 16 26 is_stmt 1 view -0
 1367              		.cfi_startproc
 1368              		@ args = 0, pretend = 0, frame = 0
ARM GAS  /var/folders/tn/k4r6j7b53kv6zg3nk3m4krpm0000gp/T//cce5pTHt.s 			page 59


 1369              		@ frame_needed = 0, uses_anonymous_args = 0
  17:library/ui/UIManager.cpp ****     button_.Debounce();
 1370              		.loc 20 17 5 view .LVU348
  16:library/ui/UIManager.cpp ****     button_.Debounce();
 1371              		.loc 20 16 26 is_stmt 0 view .LVU349
 1372 0000 10B5     		push	{r4, lr}
 1373              		.cfi_def_cfa_offset 8
 1374              		.cfi_offset 4, -8
 1375              		.cfi_offset 14, -4
  16:library/ui/UIManager.cpp ****     button_.Debounce();
 1376              		.loc 20 16 26 view .LVU350
 1377 0002 0446     		mov	r4, r0
 1378              		.loc 20 17 21 view .LVU351
 1379 0004 FFF7FEFF 		bl	_ZN5daisy6Switch8DebounceEv
 1380              	.LVL82:
  18:library/ui/UIManager.cpp ****     toggle_.Debounce();
 1381              		.loc 20 18 5 is_stmt 1 view .LVU352
 1382              		.loc 20 18 21 is_stmt 0 view .LVU353
 1383 0008 04F11000 		add	r0, r4, #16
 1384 000c FFF7FEFF 		bl	_ZN5daisy6Switch8DebounceEv
 1385              	.LVL83:
  19:library/ui/UIManager.cpp **** 
  20:library/ui/UIManager.cpp ****     if(button_.RisingEdge() && button_pressed_callback_) {
 1386              		.loc 20 20 5 is_stmt 1 view .LVU354
 1387              	.LBB657:
 1388              	.LBI657:
  70:../../libDaisy//src/hid/switch.h **** 
 1389              		.loc 10 70 17 view .LVU355
 1390              	.LBB658:
  70:../../libDaisy//src/hid/switch.h **** 
 1391              		.loc 10 70 38 view .LVU356
  70:../../libDaisy//src/hid/switch.h **** 
 1392              		.loc 10 70 54 is_stmt 0 view .LVU357
 1393 0010 2379     		ldrb	r3, [r4, #4]	@ zero_extendqisi2
 1394 0012 13B1     		cbz	r3, .L72
 1395              	.LVL84:
  70:../../libDaisy//src/hid/switch.h **** 
 1396              		.loc 10 70 54 view .LVU358
 1397              	.LBE658:
 1398              	.LBE657:
 1399              		.loc 20 20 29 view .LVU359
 1400 0014 A37A     		ldrb	r3, [r4, #10]	@ zero_extendqisi2
 1401 0016 7F2B     		cmp	r3, #127
 1402 0018 14D0     		beq	.L84
 1403              	.L72:
  21:library/ui/UIManager.cpp ****         button_pressed_callback_();
  22:library/ui/UIManager.cpp ****     }
  23:library/ui/UIManager.cpp **** 
  24:library/ui/UIManager.cpp ****     toggle_state_ = toggle_.Pressed();
 1404              		.loc 20 24 5 is_stmt 1 view .LVU360
 1405              	.LVL85:
 1406              	.LBB659:
 1407              	.LBI659:
 1408              		.loc 10 79 17 view .LVU361
 1409              	.LBB660:
 1410              		.loc 10 79 35 view .LVU362
 1411              		.loc 10 79 52 is_stmt 0 view .LVU363
ARM GAS  /var/folders/tn/k4r6j7b53kv6zg3nk3m4krpm0000gp/T//cce5pTHt.s 			page 60


 1412 001a A07E     		ldrb	r0, [r4, #26]	@ zero_extendqisi2
 1413              	.LBE660:
 1414              	.LBE659:
  25:library/ui/UIManager.cpp ****     if(toggle_state_ != last_toggle_state_ && toggle_changed_callback_) {
 1415              		.loc 20 25 5 view .LVU364
 1416 001c 94F82130 		ldrb	r3, [r4, #33]	@ zero_extendqisi2
 1417              	.LBB662:
 1418              	.LBB661:
 1419              		.loc 10 79 52 view .LVU365
 1420 0020 A0F1FF00 		sub	r0, #255
 1421 0024 B0FA80F0 		clz	r0, r0
 1422 0028 4009     		lsrs	r0, r0, #5
 1423              	.LVL86:
 1424              		.loc 10 79 52 view .LVU366
 1425              	.LBE661:
 1426              	.LBE662:
 1427              		.loc 20 25 5 view .LVU367
 1428 002a 8342     		cmp	r3, r0
  24:library/ui/UIManager.cpp ****     if(toggle_state_ != last_toggle_state_ && toggle_changed_callback_) {
 1429              		.loc 20 24 19 view .LVU368
 1430 002c 84F82000 		strb	r0, [r4, #32]
 1431              		.loc 20 25 5 is_stmt 1 view .LVU369
 1432 0030 07D0     		beq	.L71
 1433              		.loc 20 25 47 is_stmt 0 discriminator 1 view .LVU370
 1434 0032 D4F8B830 		ldr	r3, [r4, #184]
 1435              		.loc 20 25 44 discriminator 1 view .LVU371
 1436 0036 23B1     		cbz	r3, .L71
  26:library/ui/UIManager.cpp ****         toggle_changed_callback_(toggle_state_);
 1437              		.loc 20 26 9 is_stmt 1 view .LVU372
 1438              		.loc 20 26 33 is_stmt 0 view .LVU373
 1439 0038 9847     		blx	r3
 1440              	.LVL87:
  27:library/ui/UIManager.cpp ****         last_toggle_state_ = toggle_state_;
 1441              		.loc 20 27 9 is_stmt 1 view .LVU374
 1442              		.loc 20 27 28 is_stmt 0 view .LVU375
 1443 003a 94F82030 		ldrb	r3, [r4, #32]	@ zero_extendqisi2
 1444 003e 84F82130 		strb	r3, [r4, #33]
 1445              	.L71:
  28:library/ui/UIManager.cpp ****     }
  29:library/ui/UIManager.cpp **** }
 1446              		.loc 20 29 1 view .LVU376
 1447 0042 10BD     		pop	{r4, pc}
 1448              	.LVL88:
 1449              	.L84:
  20:library/ui/UIManager.cpp ****         button_pressed_callback_();
 1450              		.loc 20 20 32 discriminator 1 view .LVU377
 1451 0044 D4F8B430 		ldr	r3, [r4, #180]
  20:library/ui/UIManager.cpp ****         button_pressed_callback_();
 1452              		.loc 20 20 29 discriminator 1 view .LVU378
 1453 0048 002B     		cmp	r3, #0
 1454 004a E6D0     		beq	.L72
  21:library/ui/UIManager.cpp ****     }
 1455              		.loc 20 21 9 is_stmt 1 view .LVU379
  21:library/ui/UIManager.cpp ****     }
 1456              		.loc 20 21 33 is_stmt 0 view .LVU380
 1457 004c 9847     		blx	r3
 1458              	.LVL89:
ARM GAS  /var/folders/tn/k4r6j7b53kv6zg3nk3m4krpm0000gp/T//cce5pTHt.s 			page 61


 1459 004e E4E7     		b	.L72
 1460              		.cfi_endproc
 1461              	.LFE5197:
 1463              		.section	.text._ZNK13sudwalfulkaan9UIManager14GetRawPotValueEi,"ax",%progbits
 1464              		.align	1
 1465              		.p2align 2,,3
 1466              		.global	_ZNK13sudwalfulkaan9UIManager14GetRawPotValueEi
 1467              		.syntax unified
 1468              		.thumb
 1469              		.thumb_func
 1471              	_ZNK13sudwalfulkaan9UIManager14GetRawPotValueEi:
 1472              	.LVL90:
 1473              	.LFB5200:
  30:library/ui/UIManager.cpp **** 
  31:library/ui/UIManager.cpp **** void UIManager::SetPotValue(int index, float value) {
  32:library/ui/UIManager.cpp ****     if(index < 0 || index >= 4) return;
  33:library/ui/UIManager.cpp ****     float smoothed_raw = pots_[index].Process(value);
  34:library/ui/UIManager.cpp ****     if(pots_[index].HasSignificantChange()) {
  35:library/ui/UIManager.cpp ****         float mapped = ApplyMapping(index, smoothed_raw);
  36:library/ui/UIManager.cpp ****         if(pot_changed_callback_) {
  37:library/ui/UIManager.cpp ****             pot_changed_callback_(index, mapped);
  38:library/ui/UIManager.cpp ****         }
  39:library/ui/UIManager.cpp ****     }
  40:library/ui/UIManager.cpp **** }
  41:library/ui/UIManager.cpp **** 
  42:library/ui/UIManager.cpp **** float UIManager::GetPotValue(int index) const {
  43:library/ui/UIManager.cpp ****     if(index < 0 || index >= 4) return 0.f;
  44:library/ui/UIManager.cpp ****     float raw_val = pots_[index].Value();
  45:library/ui/UIManager.cpp ****     return ApplyMapping(index, raw_val);
  46:library/ui/UIManager.cpp **** }
  47:library/ui/UIManager.cpp **** 
  48:library/ui/UIManager.cpp **** float UIManager::GetRawPotValue(int index) const {
 1474              		.loc 20 48 50 is_stmt 1 view -0
 1475              		.cfi_startproc
 1476              		@ args = 0, pretend = 0, frame = 0
 1477              		@ frame_needed = 0, uses_anonymous_args = 0
 1478              		@ link register save eliminated.
  49:library/ui/UIManager.cpp ****     if(index < 0 || index >= 4) return 0.f;
 1479              		.loc 20 49 5 view .LVU382
 1480 0000 0329     		cmp	r1, #3
 1481 0002 04D8     		bhi	.L87
  50:library/ui/UIManager.cpp ****     return pots_[index].Value();
 1482              		.loc 20 50 5 view .LVU383
 1483              	.LVL91:
 1484              	.LBB663:
 1485              	.LBI663:
  17:library/ui/ParamSmoother.h ****     }
  18:library/ui/ParamSmoother.h **** 
  19:library/ui/ParamSmoother.h ****     float Process(float target)
  20:library/ui/ParamSmoother.h ****     {
  21:library/ui/ParamSmoother.h ****         smoothed_ += (target - smoothed_) * slewRate_;
  22:library/ui/ParamSmoother.h ****         return smoothed_;
  23:library/ui/ParamSmoother.h ****     }
  24:library/ui/ParamSmoother.h **** 
  25:library/ui/ParamSmoother.h ****     // Only returns true if change is meaningful
  26:library/ui/ParamSmoother.h ****     bool HasSignificantChange()
  27:library/ui/ParamSmoother.h ****     {
ARM GAS  /var/folders/tn/k4r6j7b53kv6zg3nk3m4krpm0000gp/T//cce5pTHt.s 			page 62


  28:library/ui/ParamSmoother.h ****         if(std::fabs(smoothed_ - previous_) > threshold_)
  29:library/ui/ParamSmoother.h ****         {
  30:library/ui/ParamSmoother.h ****             previous_ = smoothed_;
  31:library/ui/ParamSmoother.h ****             return true;
  32:library/ui/ParamSmoother.h ****         }
  33:library/ui/ParamSmoother.h ****         return false;
  34:library/ui/ParamSmoother.h ****     }
  35:library/ui/ParamSmoother.h **** 
  36:library/ui/ParamSmoother.h ****     float Value() const { return smoothed_; }
 1486              		.loc 21 36 11 view .LVU384
 1487              	.LBB664:
 1488              		.loc 21 36 27 view .LVU385
 1489              		.loc 21 36 34 is_stmt 0 view .LVU386
 1490 0004 00EB0110 		add	r0, r0, r1, lsl #4
 1491              	.LVL92:
 1492              		.loc 21 36 34 view .LVU387
 1493 0008 90ED090A 		vldr.32	s0, [r0, #36]
 1494              	.LVL93:
 1495              		.loc 21 36 34 view .LVU388
 1496              	.LBE664:
 1497              	.LBE663:
 1498              		.loc 20 50 31 view .LVU389
 1499 000c 7047     		bx	lr
 1500              	.LVL94:
 1501              	.L87:
  49:library/ui/UIManager.cpp ****     return pots_[index].Value();
 1502              		.loc 20 49 40 view .LVU390
 1503 000e 9FED010A 		vldr.32	s0, .L88
  51:library/ui/UIManager.cpp **** }
 1504              		.loc 20 51 1 view .LVU391
 1505 0012 7047     		bx	lr
 1506              	.L89:
 1507              		.align	2
 1508              	.L88:
 1509 0014 00000000 		.word	0
 1510              		.cfi_endproc
 1511              	.LFE5200:
 1513              		.section	.text._ZNK13sudwalfulkaan9UIManager12ApplyMappingEif,"ax",%progbits
 1514              		.align	1
 1515              		.p2align 2,,3
 1516              		.global	_ZNK13sudwalfulkaan9UIManager12ApplyMappingEif
 1517              		.syntax unified
 1518              		.thumb
 1519              		.thumb_func
 1521              	_ZNK13sudwalfulkaan9UIManager12ApplyMappingEif:
 1522              	.LVL95:
 1523              	.LFB5201:
  52:library/ui/UIManager.cpp **** 
  53:library/ui/UIManager.cpp **** float UIManager::ApplyMapping(int index, float value) const {
 1524              		.loc 20 53 61 is_stmt 1 view -0
 1525              		.cfi_startproc
 1526              		@ args = 0, pretend = 0, frame = 0
 1527              		@ frame_needed = 0, uses_anonymous_args = 0
  54:library/ui/UIManager.cpp ****     const PotConfig& cfg = pot_configs_[index];
 1528              		.loc 20 54 5 view .LVU393
  55:library/ui/UIManager.cpp ****     switch(cfg.mapping) {
 1529              		.loc 20 55 5 view .LVU394
ARM GAS  /var/folders/tn/k4r6j7b53kv6zg3nk3m4krpm0000gp/T//cce5pTHt.s 			page 63


 1530              	.LBB665:
 1531              		.loc 20 55 16 is_stmt 0 view .LVU395
 1532 0000 01EB8101 		add	r1, r1, r1, lsl #2
 1533              	.LVL96:
 1534              		.loc 20 55 16 view .LVU396
 1535              	.LBE665:
  53:library/ui/UIManager.cpp ****     const PotConfig& cfg = pot_configs_[index];
 1536              		.loc 20 53 61 view .LVU397
 1537 0004 10B5     		push	{r4, lr}
 1538              		.cfi_def_cfa_offset 8
 1539              		.cfi_offset 4, -8
 1540              		.cfi_offset 14, -4
 1541              	.LBB679:
 1542              		.loc 20 55 16 view .LVU398
 1543 0006 00EB8104 		add	r4, r0, r1, lsl #2
 1544 000a 636F     		ldr	r3, [r4, #116]
 1545              		.loc 20 55 5 view .LVU399
 1546 000c 012B     		cmp	r3, #1
